SF:/Users/sonesuke/Desktop/docgraph/src/cli/args.rs
FN:98,_RNvNtNtNtCs45lXedhizVw_8docgraph3cli4args5testss_10verify_cli
FN:143,_RNvNtNtNtCs45lXedhizVw_8docgraph3cli4args5testss_15test_list_query
FN:122,_RNvNtNtNtCs45lXedhizVw_8docgraph3cli4args5testss_16test_check_flags
FN:103,_RNvNtNtNtCs45lXedhizVw_8docgraph3cli4args5testss_18test_check_default
FNDA:1,_RNvNtNtNtCs45lXedhizVw_8docgraph3cli4args5testss_10verify_cli
FNDA:1,_RNvNtNtNtCs45lXedhizVw_8docgraph3cli4args5testss_15test_list_query
FNDA:1,_RNvNtNtNtCs45lXedhizVw_8docgraph3cli4args5testss_16test_check_flags
FNDA:1,_RNvNtNtNtCs45lXedhizVw_8docgraph3cli4args5testss_18test_check_default
FNF:4
FNH:4
DA:98,1
DA:99,1
DA:100,1
DA:103,1
DA:104,1
DA:105,1
DA:107,1
DA:108,1
DA:109,1
DA:110,1
DA:112,1
DA:113,1
DA:114,1
DA:115,1
DA:117,0
DA:119,1
DA:122,1
DA:123,1
DA:124,1
DA:125,1
DA:126,1
DA:128,1
DA:129,1
DA:130,1
DA:131,1
DA:133,1
DA:134,1
DA:135,1
DA:136,1
DA:138,0
DA:140,1
DA:143,1
DA:144,1
DA:145,1
DA:146,1
DA:147,1
DA:148,1
DA:150,0
DA:152,1
BRF:0
BRH:0
LF:39
LH:36
end_of_record
SF:/Users/sonesuke/Desktop/docgraph/src/cli/handlers/check.rs
FN:36,_RNCNvNtNtNtCs8RsHhL5CoQx_8docgraph3cli8handlers5check9try_check0B9_
FN:72,_RNCNvNtNtNtCs8RsHhL5CoQx_8docgraph3cli8handlers5check9try_checks0_0B9_
FN:40,_RNCNvNtNtNtCs8RsHhL5CoQx_8docgraph3cli8handlers5check9try_checks_0B9_
FN:80,_RNvNtNtNtCs8RsHhL5CoQx_8docgraph3cli8handlers5check10handle_fmt
FN:7,_RNvNtNtNtCs8RsHhL5CoQx_8docgraph3cli8handlers5check12handle_check
FN:90,_RNvNtNtNtCs8RsHhL5CoQx_8docgraph3cli8handlers5check7try_fmt
FN:17,_RNvNtNtNtCs8RsHhL5CoQx_8docgraph3cli8handlers5check9try_check
FN:80,_RNvNtNtNtCs45lXedhizVw_8docgraph3cli8handlers5check10handle_fmt
FN:7,_RNvNtNtNtCs45lXedhizVw_8docgraph3cli8handlers5check12handle_check
FN:90,_RNvNtNtNtCs45lXedhizVw_8docgraph3cli8handlers5check7try_fmt
FN:17,_RNvNtNtNtCs45lXedhizVw_8docgraph3cli8handlers5check9try_check
FN:36,_RNCNvNtNtNtCs45lXedhizVw_8docgraph3cli8handlers5check9try_check0B9_
FN:72,_RNCNvNtNtNtCs45lXedhizVw_8docgraph3cli8handlers5check9try_checks0_0B9_
FN:40,_RNCNvNtNtNtCs45lXedhizVw_8docgraph3cli8handlers5check9try_checks_0B9_
FNDA:6,_RNCNvNtNtNtCs8RsHhL5CoQx_8docgraph3cli8handlers5check9try_check0B9_
FNDA:5,_RNCNvNtNtNtCs8RsHhL5CoQx_8docgraph3cli8handlers5check9try_checks0_0B9_
FNDA:6,_RNCNvNtNtNtCs8RsHhL5CoQx_8docgraph3cli8handlers5check9try_checks_0B9_
FNDA:0,_RNvNtNtNtCs8RsHhL5CoQx_8docgraph3cli8handlers5check10handle_fmt
FNDA:11,_RNvNtNtNtCs8RsHhL5CoQx_8docgraph3cli8handlers5check12handle_check
FNDA:0,_RNvNtNtNtCs8RsHhL5CoQx_8docgraph3cli8handlers5check7try_fmt
FNDA:11,_RNvNtNtNtCs8RsHhL5CoQx_8docgraph3cli8handlers5check9try_check
FNDA:0,_RNvNtNtNtCs45lXedhizVw_8docgraph3cli8handlers5check10handle_fmt
FNDA:0,_RNvNtNtNtCs45lXedhizVw_8docgraph3cli8handlers5check12handle_check
FNDA:0,_RNvNtNtNtCs45lXedhizVw_8docgraph3cli8handlers5check7try_fmt
FNDA:0,_RNvNtNtNtCs45lXedhizVw_8docgraph3cli8handlers5check9try_check
FNDA:0,_RNCNvNtNtNtCs45lXedhizVw_8docgraph3cli8handlers5check9try_check0B9_
FNDA:0,_RNCNvNtNtNtCs45lXedhizVw_8docgraph3cli8handlers5check9try_checks0_0B9_
FNDA:0,_RNCNvNtNtNtCs45lXedhizVw_8docgraph3cli8handlers5check9try_checks_0B9_
FNF:7
FNH:5
DA:7,11
DA:8,11
DA:9,11
DA:10,0
DA:11,0
DA:12,0
DA:15,11
DA:17,11
DA:18,11
DA:19,11
DA:20,11
DA:21,11
DA:22,11
DA:23,11
DA:25,11
DA:27,11
DA:28,1
DA:29,1
DA:30,1
DA:32,10
DA:34,10
DA:35,10
DA:36,10
DA:37,10
DA:38,10
DA:39,10
DA:40,10
DA:41,10
DA:43,10
DA:44,5
DA:45,5
DA:46,5
DA:47,5
DA:48,5
DA:49,5
DA:50,5
DA:51,0
DA:52,5
DA:54,5
DA:56,5
DA:57,5
DA:58,5
DA:59,5
DA:60,5
DA:61,5
DA:62,0
DA:63,0
DA:64,0
DA:65,0
DA:66,0
DA:70,11
DA:71,11
DA:72,11
DA:74,5
DA:76,6
DA:78,11
DA:80,0
DA:81,0
DA:82,0
DA:83,0
DA:84,0
DA:85,0
DA:88,0
DA:90,0
DA:91,0
DA:92,0
DA:93,0
DA:94,0
DA:95,0
BRF:0
BRH:0
LF:72
LH:50
end_of_record
SF:/Users/sonesuke/Desktop/docgraph/src/cli/handlers/common.rs
FN:3,_RNvNtNtNtCs8RsHhL5CoQx_8docgraph3cli8handlers6common13glob_to_regex
FN:25,_RNvNtNtNtCs8RsHhL5CoQx_8docgraph3cli8handlers6common17print_diagnostics
FN:3,_RNvNtNtNtCs45lXedhizVw_8docgraph3cli8handlers6common13glob_to_regex
FN:25,_RNvNtNtNtCs45lXedhizVw_8docgraph3cli8handlers6common17print_diagnostics
FNDA:8,_RNvNtNtNtCs8RsHhL5CoQx_8docgraph3cli8handlers6common13glob_to_regex
FNDA:10,_RNvNtNtNtCs8RsHhL5CoQx_8docgraph3cli8handlers6common17print_diagnostics
FNDA:0,_RNvNtNtNtCs45lXedhizVw_8docgraph3cli8handlers6common13glob_to_regex
FNDA:0,_RNvNtNtNtCs45lXedhizVw_8docgraph3cli8handlers6common17print_diagnostics
FNF:2
FNH:2
DA:3,8
DA:4,8
DA:5,8
DA:7,38
DA:8,38
DA:9,3
DA:10,0
DA:11,0
DA:12,0
DA:13,0
DA:14,0
DA:15,35
DA:19,8
DA:20,3
DA:21,5
DA:22,8
DA:23,8
DA:25,10
DA:26,16
DA:27,6
DA:28,6
DA:29,6
DA:30,6
DA:31,0
DA:34,6
DA:40,10
BRF:0
BRH:0
LF:26
LH:20
end_of_record
SF:/Users/sonesuke/Desktop/docgraph/src/cli/handlers/describe.rs
FN:22,_RNCNvNtNtNtCs8RsHhL5CoQx_8docgraph3cli8handlers8describe12try_describe0B9_
FN:34,_RNCNvNtNtNtCs8RsHhL5CoQx_8docgraph3cli8handlers8describe12try_describes0_0B9_
FN:35,_RNCNvNtNtNtCs8RsHhL5CoQx_8docgraph3cli8handlers8describe12try_describes1_0B9_
FN:43,_RNCNvNtNtNtCs8RsHhL5CoQx_8docgraph3cli8handlers8describe12try_describes2_0B9_
FN:23,_RNCNvNtNtNtCs8RsHhL5CoQx_8docgraph3cli8handlers8describe12try_describes_0B9_
FN:16,_RNvNtNtNtCs8RsHhL5CoQx_8docgraph3cli8handlers8describe12try_describe
FN:6,_RNvNtNtNtCs8RsHhL5CoQx_8docgraph3cli8handlers8describe15handle_describe
FN:22,_RNCNvNtNtNtCs45lXedhizVw_8docgraph3cli8handlers8describe12try_describe0B9_
FN:34,_RNCNvNtNtNtCs45lXedhizVw_8docgraph3cli8handlers8describe12try_describes0_0B9_
FN:35,_RNCNvNtNtNtCs45lXedhizVw_8docgraph3cli8handlers8describe12try_describes1_0B9_
FN:43,_RNCNvNtNtNtCs45lXedhizVw_8docgraph3cli8handlers8describe12try_describes2_0B9_
FN:23,_RNCNvNtNtNtCs45lXedhizVw_8docgraph3cli8handlers8describe12try_describes_0B9_
FN:16,_RNvNtNtNtCs45lXedhizVw_8docgraph3cli8handlers8describe12try_describe
FN:6,_RNvNtNtNtCs45lXedhizVw_8docgraph3cli8handlers8describe15handle_describe
FNDA:3,_RNCNvNtNtNtCs8RsHhL5CoQx_8docgraph3cli8handlers8describe12try_describe0B9_
FNDA:1,_RNCNvNtNtNtCs8RsHhL5CoQx_8docgraph3cli8handlers8describe12try_describes0_0B9_
FNDA:1,_RNCNvNtNtNtCs8RsHhL5CoQx_8docgraph3cli8handlers8describe12try_describes1_0B9_
FNDA:1,_RNCNvNtNtNtCs8RsHhL5CoQx_8docgraph3cli8handlers8describe12try_describes2_0B9_
FNDA:1,_RNCNvNtNtNtCs8RsHhL5CoQx_8docgraph3cli8handlers8describe12try_describes_0B9_
FNDA:3,_RNvNtNtNtCs8RsHhL5CoQx_8docgraph3cli8handlers8describe12try_describe
FNDA:3,_RNvNtNtNtCs8RsHhL5CoQx_8docgraph3cli8handlers8describe15handle_describe
FNDA:0,_RNCNvNtNtNtCs45lXedhizVw_8docgraph3cli8handlers8describe12try_describe0B9_
FNDA:0,_RNCNvNtNtNtCs45lXedhizVw_8docgraph3cli8handlers8describe12try_describes0_0B9_
FNDA:0,_RNCNvNtNtNtCs45lXedhizVw_8docgraph3cli8handlers8describe12try_describes1_0B9_
FNDA:0,_RNCNvNtNtNtCs45lXedhizVw_8docgraph3cli8handlers8describe12try_describes2_0B9_
FNDA:0,_RNCNvNtNtNtCs45lXedhizVw_8docgraph3cli8handlers8describe12try_describes_0B9_
FNDA:0,_RNvNtNtNtCs45lXedhizVw_8docgraph3cli8handlers8describe12try_describe
FNDA:0,_RNvNtNtNtCs45lXedhizVw_8docgraph3cli8handlers8describe15handle_describe
FNF:7
FNH:7
DA:6,3
DA:7,3
DA:8,2
DA:9,1
DA:10,1
DA:11,1
DA:14,3
DA:16,3
DA:17,3
DA:18,3
DA:20,3
DA:21,3
DA:22,3
DA:23,3
DA:25,2
DA:26,2
DA:28,2
DA:30,2
DA:31,3
DA:32,1
DA:33,1
DA:34,1
DA:35,1
DA:36,1
DA:37,1
DA:40,2
DA:41,2
DA:42,5
DA:43,3
DA:44,0
DA:45,0
DA:46,0
DA:47,3
DA:49,2
DA:50,2
DA:51,2
DA:53,2
DA:54,3
BRF:0
BRH:0
LF:43
LH:40
end_of_record
SF:/Users/sonesuke/Desktop/docgraph/src/cli/handlers/graph.rs
FN:6,_RNvNtNtNtCs8RsHhL5CoQx_8docgraph3cli8handlers5graph12handle_graph
FN:16,_RNvNtNtNtCs8RsHhL5CoQx_8docgraph3cli8handlers5graph9try_graph
FN:6,_RNvNtNtNtCs45lXedhizVw_8docgraph3cli8handlers5graph12handle_graph
FN:16,_RNvNtNtNtCs45lXedhizVw_8docgraph3cli8handlers5graph9try_graph
FNDA:3,_RNvNtNtNtCs8RsHhL5CoQx_8docgraph3cli8handlers5graph12handle_graph
FNDA:3,_RNvNtNtNtCs8RsHhL5CoQx_8docgraph3cli8handlers5graph9try_graph
FNDA:0,_RNvNtNtNtCs45lXedhizVw_8docgraph3cli8handlers5graph12handle_graph
FNDA:0,_RNvNtNtNtCs45lXedhizVw_8docgraph3cli8handlers5graph9try_graph
FNF:2
FNH:2
DA:6,3
DA:7,3
DA:8,3
DA:9,0
DA:10,0
DA:11,0
DA:14,3
DA:16,3
DA:17,3
DA:18,3
DA:19,3
DA:20,3
DA:21,3
DA:22,3
DA:23,3
BRF:0
BRH:0
LF:15
LH:12
end_of_record
SF:/Users/sonesuke/Desktop/docgraph/src/cli/handlers/list.rs
FN:22,_RNCNvNtNtNtCs8RsHhL5CoQx_8docgraph3cli8handlers4list8try_list0B9_
FN:7,_RNvNtNtNtCs8RsHhL5CoQx_8docgraph3cli8handlers4list11handle_list
FN:17,_RNvNtNtNtCs8RsHhL5CoQx_8docgraph3cli8handlers4list8try_list
FN:22,_RNCNvNtNtNtCs45lXedhizVw_8docgraph3cli8handlers4list8try_list0B9_
FN:7,_RNvNtNtNtCs45lXedhizVw_8docgraph3cli8handlers4list11handle_list
FN:17,_RNvNtNtNtCs45lXedhizVw_8docgraph3cli8handlers4list8try_list
FNDA:0,_RNCNvNtNtNtCs8RsHhL5CoQx_8docgraph3cli8handlers4list8try_list0B9_
FNDA:3,_RNvNtNtNtCs8RsHhL5CoQx_8docgraph3cli8handlers4list11handle_list
FNDA:3,_RNvNtNtNtCs8RsHhL5CoQx_8docgraph3cli8handlers4list8try_list
FNDA:0,_RNCNvNtNtNtCs45lXedhizVw_8docgraph3cli8handlers4list8try_list0B9_
FNDA:0,_RNvNtNtNtCs45lXedhizVw_8docgraph3cli8handlers4list11handle_list
FNDA:0,_RNvNtNtNtCs45lXedhizVw_8docgraph3cli8handlers4list8try_list
FNF:3
FNH:2
DA:7,3
DA:8,3
DA:9,3
DA:10,0
DA:11,0
DA:12,0
DA:15,3
DA:17,3
DA:18,3
DA:19,3
DA:20,3
DA:21,3
DA:22,3
DA:24,7
DA:25,4
DA:26,3
DA:27,3
DA:28,3
DA:29,3
DA:30,3
DA:31,3
DA:33,3
DA:34,3
BRF:0
BRH:0
LF:24
LH:20
end_of_record
SF:/Users/sonesuke/Desktop/docgraph/src/cli/handlers/rule.rs
FN:4,_RNvNtNtNtCs8RsHhL5CoQx_8docgraph3cli8handlers4rule11handle_rule
FN:14,_RNvNtNtNtCs8RsHhL5CoQx_8docgraph3cli8handlers4rule8try_rule
FN:25,_RNCNvNtNtNtCs8RsHhL5CoQx_8docgraph3cli8handlers4rule8try_rule0B9_
FN:4,_RNvNtNtNtCs45lXedhizVw_8docgraph3cli8handlers4rule11handle_rule
FN:14,_RNvNtNtNtCs45lXedhizVw_8docgraph3cli8handlers4rule8try_rule
FN:25,_RNCNvNtNtNtCs45lXedhizVw_8docgraph3cli8handlers4rule8try_rule0B9_
FNDA:4,_RNvNtNtNtCs8RsHhL5CoQx_8docgraph3cli8handlers4rule11handle_rule
FNDA:4,_RNvNtNtNtCs8RsHhL5CoQx_8docgraph3cli8handlers4rule8try_rule
FNDA:207,_RNCNvNtNtNtCs8RsHhL5CoQx_8docgraph3cli8handlers4rule8try_rule0B9_
FNDA:0,_RNvNtNtNtCs45lXedhizVw_8docgraph3cli8handlers4rule11handle_rule
FNDA:0,_RNvNtNtNtCs45lXedhizVw_8docgraph3cli8handlers4rule8try_rule
FNDA:0,_RNCNvNtNtNtCs45lXedhizVw_8docgraph3cli8handlers4rule8try_rule0B9_
FNF:3
FNH:3
DA:4,4
DA:5,4
DA:6,3
DA:7,1
DA:8,1
DA:9,1
DA:12,4
DA:14,4
DA:15,4
DA:16,4
DA:17,4
DA:18,4
DA:19,4
DA:20,4
DA:23,4
DA:24,3
DA:25,207
DA:26,207
DA:27,205
DA:28,207
DA:30,3
DA:31,2
DA:32,2
DA:33,2
DA:34,2
DA:35,2
DA:36,2
DA:37,2
DA:38,1
DA:41,1
DA:42,72
DA:43,71
DA:44,71
DA:46,3
DA:47,4
BRF:0
BRH:0
LF:36
LH:36
end_of_record
SF:/Users/sonesuke/Desktop/docgraph/src/cli/handlers/trace.rs
FN:27,_RNCNvNtNtNtCs8RsHhL5CoQx_8docgraph3cli8handlers5trace9try_trace0B9_
FN:50,_RNCNvNtNtNtCs8RsHhL5CoQx_8docgraph3cli8handlers5trace9try_traces0_0B9_
FN:34,_RNCNvNtNtNtCs8RsHhL5CoQx_8docgraph3cli8handlers5trace9try_traces_0B9_
FN:79,_RNvNtNtNtCs8RsHhL5CoQx_8docgraph3cli8handlers5trace10find_paths
FN:7,_RNvNtNtNtCs8RsHhL5CoQx_8docgraph3cli8handlers5trace12handle_trace
FN:17,_RNvNtNtNtCs8RsHhL5CoQx_8docgraph3cli8handlers5trace9try_trace
FN:79,_RNvNtNtNtCs45lXedhizVw_8docgraph3cli8handlers5trace10find_paths
FN:7,_RNvNtNtNtCs45lXedhizVw_8docgraph3cli8handlers5trace12handle_trace
FN:17,_RNvNtNtNtCs45lXedhizVw_8docgraph3cli8handlers5trace9try_trace
FN:27,_RNCNvNtNtNtCs45lXedhizVw_8docgraph3cli8handlers5trace9try_trace0B9_
FN:50,_RNCNvNtNtNtCs45lXedhizVw_8docgraph3cli8handlers5trace9try_traces0_0B9_
FN:34,_RNCNvNtNtNtCs45lXedhizVw_8docgraph3cli8handlers5trace9try_traces_0B9_
FNDA:0,_RNCNvNtNtNtCs8RsHhL5CoQx_8docgraph3cli8handlers5trace9try_trace0B9_
FNDA:7,_RNCNvNtNtNtCs8RsHhL5CoQx_8docgraph3cli8handlers5trace9try_traces0_0B9_
FNDA:2,_RNCNvNtNtNtCs8RsHhL5CoQx_8docgraph3cli8handlers5trace9try_traces_0B9_
FNDA:7,_RNvNtNtNtCs8RsHhL5CoQx_8docgraph3cli8handlers5trace10find_paths
FNDA:5,_RNvNtNtNtCs8RsHhL5CoQx_8docgraph3cli8handlers5trace12handle_trace
FNDA:5,_RNvNtNtNtCs8RsHhL5CoQx_8docgraph3cli8handlers5trace9try_trace
FNDA:0,_RNvNtNtNtCs45lXedhizVw_8docgraph3cli8handlers5trace10find_paths
FNDA:0,_RNvNtNtNtCs45lXedhizVw_8docgraph3cli8handlers5trace12handle_trace
FNDA:0,_RNvNtNtNtCs45lXedhizVw_8docgraph3cli8handlers5trace9try_trace
FNDA:0,_RNCNvNtNtNtCs45lXedhizVw_8docgraph3cli8handlers5trace9try_trace0B9_
FNDA:0,_RNCNvNtNtNtCs45lXedhizVw_8docgraph3cli8handlers5trace9try_traces0_0B9_
FNDA:0,_RNCNvNtNtNtCs45lXedhizVw_8docgraph3cli8handlers5trace9try_traces_0B9_
FNF:6
FNH:5
DA:7,5
DA:8,5
DA:9,4
DA:10,1
DA:11,1
DA:12,1
DA:15,5
DA:17,5
DA:18,5
DA:19,5
DA:20,5
DA:21,5
DA:22,5
DA:23,5
DA:24,5
DA:25,5
DA:26,5
DA:27,5
DA:29,5
DA:30,5
DA:32,5
DA:33,9
DA:34,6
DA:35,6
DA:37,2
DA:38,3
DA:39,3
DA:40,1
DA:41,1
DA:42,1
DA:43,1
DA:44,1
DA:47,1
DA:50,7
DA:51,0
DA:52,4
DA:54,4
DA:55,4
DA:56,4
DA:57,4
DA:59,4
DA:60,4
DA:61,4
DA:62,4
DA:63,4
DA:64,4
DA:65,4
DA:68,4
DA:69,1
DA:70,1
DA:71,6
DA:72,3
DA:73,3
DA:76,4
DA:77,5
DA:79,7
DA:80,7
DA:81,7
DA:82,7
DA:83,7
DA:84,7
DA:85,7
DA:86,7
DA:87,7
DA:88,3
DA:89,4
DA:91,7
DA:92,9
DA:93,3
DA:94,3
DA:95,3
DA:96,3
DA:97,3
DA:98,3
DA:99,3
DA:101,1
DA:102,7
BRF:0
BRH:0
LF:80
LH:78
end_of_record
SF:/Users/sonesuke/Desktop/docgraph/src/cli/mod.rs
FN:9,_RNvNtCs8RsHhL5CoQx_8docgraph3cli3run
FN:9,_RNCNvNtCs8RsHhL5CoQx_8docgraph3cli3run0B5_
FN:9,_RNvNtCs45lXedhizVw_8docgraph3cli3run
FN:9,_RNCNvNtCs45lXedhizVw_8docgraph3cli3run0B5_
FNDA:35,_RNvNtCs8RsHhL5CoQx_8docgraph3cli3run
FNDA:35,_RNCNvNtCs8RsHhL5CoQx_8docgraph3cli3run0B5_
FNDA:0,_RNvNtCs45lXedhizVw_8docgraph3cli3run
FNDA:0,_RNCNvNtCs45lXedhizVw_8docgraph3cli3run0B5_
FNF:2
FNH:2
DA:9,35
DA:10,35
DA:12,35
DA:14,0
DA:15,0
DA:18,17
DA:19,17
DA:20,17
DA:21,17
DA:22,17
DA:23,0
DA:24,4
DA:25,3
DA:26,3
DA:28,5
DA:29,5
DA:30,5
DA:31,5
DA:32,5
DA:33,3
DA:35,35
BRF:0
BRH:0
LF:22
LH:19
end_of_record
SF:/Users/sonesuke/Desktop/docgraph/src/core/collect.rs
FN:8,_RNvNtNtCs8RsHhL5CoQx_8docgraph4core7collect21collect_workspace_all
FN:8,_RNvNtNtCs45lXedhizVw_8docgraph4core7collect21collect_workspace_all
FN:37,_RNvNtNtNtCs45lXedhizVw_8docgraph4core7collect5testss_26test_collect_workspace_all
FNDA:25,_RNvNtNtCs8RsHhL5CoQx_8docgraph4core7collect21collect_workspace_all
FNDA:7,_RNvNtNtCs45lXedhizVw_8docgraph4core7collect21collect_workspace_all
FNDA:1,_RNvNtNtNtCs45lXedhizVw_8docgraph4core7collect5testss_26test_collect_workspace_all
FNF:2
FNH:2
DA:8,32
DA:9,32
DA:10,32
DA:11,32
DA:12,32
DA:13,32
DA:14,32
DA:16,68
DA:17,36
DA:18,36
DA:19,36
DA:20,36
DA:21,36
DA:22,36
DA:23,0
DA:26,32
DA:27,32
DA:37,1
DA:38,1
DA:39,1
DA:40,1
DA:41,1
DA:43,1
DA:45,1
DA:46,1
DA:47,1
DA:48,1
DA:49,1
BRF:0
BRH:0
LF:28
LH:27
end_of_record
SF:/Users/sonesuke/Desktop/docgraph/src/core/config.rs
FN:53,_RNvMNtNtCs8RsHhL5CoQx_8docgraph4core6configNtB2_6Config4load
FN:59,_RNCNvMNtNtCs8RsHhL5CoQx_8docgraph4core6configNtB4_6Config4load0B8_
FN:60,_RNCNvMNtNtCs8RsHhL5CoQx_8docgraph4core6configNtB4_6Config4loads_0B8_
FN:53,_RNvMNtNtCs45lXedhizVw_8docgraph4core6configNtB2_6Config4load
FN:95,_RNvNtNtNtCs45lXedhizVw_8docgraph4core6config5testss_24test_load_config_default
FN:106,_RNvNtNtNtCs45lXedhizVw_8docgraph4core6config5testss_26test_load_config_from_file
FN:132,_RNvNtNtNtCs45lXedhizVw_8docgraph4core6config5testss_26test_load_config_malformed
FN:160,_RNvNtNtNtCs45lXedhizVw_8docgraph4core6config5testss_26test_load_config_root_path
FN:118,_RNvNtNtNtCs45lXedhizVw_8docgraph4core6config5testss_30test_load_config_parent_search
FN:143,_RNvNtNtNtCs45lXedhizVw_8docgraph4core6config5testss_39test_load_config_from_specific_file_arg
FN:59,_RNCNvMNtNtCs45lXedhizVw_8docgraph4core6configNtB4_6Config4load0B8_
FN:60,_RNCNvMNtNtCs45lXedhizVw_8docgraph4core6configNtB4_6Config4loads_0B8_
FNDA:25,_RNvMNtNtCs8RsHhL5CoQx_8docgraph4core6configNtB2_6Config4load
FNDA:1,_RNCNvMNtNtCs8RsHhL5CoQx_8docgraph4core6configNtB4_6Config4load0B8_
FNDA:0,_RNCNvMNtNtCs8RsHhL5CoQx_8docgraph4core6configNtB4_6Config4loads_0B8_
FNDA:6,_RNvMNtNtCs45lXedhizVw_8docgraph4core6configNtB2_6Config4load
FNDA:1,_RNvNtNtNtCs45lXedhizVw_8docgraph4core6config5testss_24test_load_config_default
FNDA:1,_RNvNtNtNtCs45lXedhizVw_8docgraph4core6config5testss_26test_load_config_from_file
FNDA:1,_RNvNtNtNtCs45lXedhizVw_8docgraph4core6config5testss_26test_load_config_malformed
FNDA:1,_RNvNtNtNtCs45lXedhizVw_8docgraph4core6config5testss_26test_load_config_root_path
FNDA:1,_RNvNtNtNtCs45lXedhizVw_8docgraph4core6config5testss_30test_load_config_parent_search
FNDA:1,_RNvNtNtNtCs45lXedhizVw_8docgraph4core6config5testss_39test_load_config_from_specific_file_arg
FNDA:1,_RNCNvMNtNtCs45lXedhizVw_8docgraph4core6configNtB4_6Config4load0B8_
FNDA:0,_RNCNvMNtNtCs45lXedhizVw_8docgraph4core6configNtB4_6Config4loads_0B8_
FNF:9
FNH:8
DA:53,31
DA:55,31
DA:56,29
DA:58,2
DA:59,2
DA:60,2
DA:64,31
DA:65,67
DA:66,61
DA:67,61
DA:68,25
DA:69,25
DA:70,24
DA:71,36
DA:72,36
DA:76,6
DA:77,6
DA:78,6
DA:79,6
DA:80,6
DA:81,0
DA:83,0
DA:84,31
DA:95,1
DA:96,1
DA:98,1
DA:99,1
DA:101,1
DA:102,1
DA:103,1
DA:106,1
DA:107,1
DA:108,1
DA:109,1
DA:111,1
DA:113,1
DA:114,1
DA:115,1
DA:118,1
DA:119,1
DA:120,1
DA:121,1
DA:123,1
DA:124,1
DA:125,1
DA:127,1
DA:128,1
DA:129,1
DA:132,1
DA:133,1
DA:134,1
DA:135,1
DA:138,1
DA:139,1
DA:140,1
DA:143,1
DA:144,1
DA:145,1
DA:146,1
DA:147,1
DA:153,1
DA:154,1
DA:156,1
DA:157,1
DA:160,1
DA:166,1
DA:170,1
DA:176,1
DA:177,1
DA:178,1
DA:179,1
DA:180,1
DA:181,0
DA:183,1
BRF:0
BRH:0
LF:76
LH:72
end_of_record
SF:/Users/sonesuke/Desktop/docgraph/src/core/lint.rs
FN:42,_RNCNvNtNtCs8RsHhL5CoQx_8docgraph4core4lint15check_workspace0B7_
FN:51,_RNCNvNtNtCs8RsHhL5CoQx_8docgraph4core4lint15check_workspaces0_0B7_
FN:76,_RNCNvNtNtCs8RsHhL5CoQx_8docgraph4core4lint15check_workspaces1_0B7_
FN:192,_RNCNvNtNtCs8RsHhL5CoQx_8docgraph4core4lint15check_workspaces2_0B7_
FN:45,_RNCNvNtNtCs8RsHhL5CoQx_8docgraph4core4lint15check_workspaces_0B7_
FN:21,_RNvNtNtCs8RsHhL5CoQx_8docgraph4core4lint15check_workspace
FN:12,_RNvNtNtCs8RsHhL5CoQx_8docgraph4core4lint25should_skip_rumdl_warning
FN:21,_RNvNtNtCs45lXedhizVw_8docgraph4core4lint15check_workspace
FN:12,_RNvNtNtCs45lXedhizVw_8docgraph4core4lint25should_skip_rumdl_warning
FN:42,_RNCNvNtNtCs45lXedhizVw_8docgraph4core4lint15check_workspace0B7_
FN:51,_RNCNvNtNtCs45lXedhizVw_8docgraph4core4lint15check_workspaces0_0B7_
FN:76,_RNCNvNtNtCs45lXedhizVw_8docgraph4core4lint15check_workspaces1_0B7_
FN:192,_RNCNvNtNtCs45lXedhizVw_8docgraph4core4lint15check_workspaces2_0B7_
FN:45,_RNCNvNtNtCs45lXedhizVw_8docgraph4core4lint15check_workspaces_0B7_
FN:232,_RNvNtNtNtCs45lXedhizVw_8docgraph4core4lint5testss_26test_check_workspace_basic
FN:318,_RNvNtNtNtCs45lXedhizVw_8docgraph4core4lint5testss_29test_check_workspace_with_fix
FN:253,_RNvNtNtNtCs45lXedhizVw_8docgraph4core4lint5testss_31test_check_workspace_skip_rumdl
FN:303,_RNvNtNtNtCs45lXedhizVw_8docgraph4core4lint5testss_31test_skip_logic_for_other_rules
FN:269,_RNvNtNtNtCs45lXedhizVw_8docgraph4core4lint5testss_32test_should_skip_rumdl_anchor_id
FN:337,_RNvNtNtNtCs45lXedhizVw_8docgraph4core4lint5testss_37test_check_workspace_with_rule_filter
FN:282,_RNvNtNtNtCs45lXedhizVw_8docgraph4core4lint5testss_37test_should_not_skip_rumdl_other_html
FN:367,_RNvNtNtNtCs45lXedhizVw_8docgraph4core4lint5testss_41test_check_workspace_with_fix_write_error
FN:248,_RNCNvNtNtNtCs45lXedhizVw_8docgraph4core4lint5testss_26test_check_workspace_basic0B9_
FN:265,_RNCNvNtNtNtCs45lXedhizVw_8docgraph4core4lint5testss_31test_check_workspace_skip_rumdl0B9_
FN:353,_RNCNvNtNtNtCs45lXedhizVw_8docgraph4core4lint5testss_37test_check_workspace_with_rule_filter0B9_
FN:363,_RNCNvNtNtNtCs45lXedhizVw_8docgraph4core4lint5testss_37test_check_workspace_with_rule_filters_0B9_
FN:394,_RNCNvNtNtNtCs45lXedhizVw_8docgraph4core4lint5testss_41test_check_workspace_with_fix_write_error0B9_
FNDA:2,_RNCNvNtNtCs8RsHhL5CoQx_8docgraph4core4lint15check_workspace0B7_
FNDA:639,_RNCNvNtNtCs8RsHhL5CoQx_8docgraph4core4lint15check_workspaces0_0B7_
FNDA:0,_RNCNvNtNtCs8RsHhL5CoQx_8docgraph4core4lint15check_workspaces1_0B7_
FNDA:0,_RNCNvNtNtCs8RsHhL5CoQx_8docgraph4core4lint15check_workspaces2_0B7_
FNDA:142,_RNCNvNtNtCs8RsHhL5CoQx_8docgraph4core4lint15check_workspaces_0B7_
FNDA:11,_RNvNtNtCs8RsHhL5CoQx_8docgraph4core4lint15check_workspace
FNDA:21,_RNvNtNtCs8RsHhL5CoQx_8docgraph4core4lint25should_skip_rumdl_warning
FNDA:6,_RNvNtNtCs45lXedhizVw_8docgraph4core4lint15check_workspace
FNDA:16,_RNvNtNtCs45lXedhizVw_8docgraph4core4lint25should_skip_rumdl_warning
FNDA:2,_RNCNvNtNtCs45lXedhizVw_8docgraph4core4lint15check_workspace0B7_
FNDA:142,_RNCNvNtNtCs45lXedhizVw_8docgraph4core4lint15check_workspaces0_0B7_
FNDA:2,_RNCNvNtNtCs45lXedhizVw_8docgraph4core4lint15check_workspaces1_0B7_
FNDA:0,_RNCNvNtNtCs45lXedhizVw_8docgraph4core4lint15check_workspaces2_0B7_
FNDA:142,_RNCNvNtNtCs45lXedhizVw_8docgraph4core4lint15check_workspaces_0B7_
FNDA:1,_RNvNtNtNtCs45lXedhizVw_8docgraph4core4lint5testss_26test_check_workspace_basic
FNDA:1,_RNvNtNtNtCs45lXedhizVw_8docgraph4core4lint5testss_29test_check_workspace_with_fix
FNDA:1,_RNvNtNtNtCs45lXedhizVw_8docgraph4core4lint5testss_31test_check_workspace_skip_rumdl
FNDA:1,_RNvNtNtNtCs45lXedhizVw_8docgraph4core4lint5testss_31test_skip_logic_for_other_rules
FNDA:1,_RNvNtNtNtCs45lXedhizVw_8docgraph4core4lint5testss_32test_should_skip_rumdl_anchor_id
FNDA:1,_RNvNtNtNtCs45lXedhizVw_8docgraph4core4lint5testss_37test_check_workspace_with_rule_filter
FNDA:1,_RNvNtNtNtCs45lXedhizVw_8docgraph4core4lint5testss_37test_should_not_skip_rumdl_other_html
FNDA:1,_RNvNtNtNtCs45lXedhizVw_8docgraph4core4lint5testss_41test_check_workspace_with_fix_write_error
FNDA:2,_RNCNvNtNtNtCs45lXedhizVw_8docgraph4core4lint5testss_26test_check_workspace_basic0B9_
FNDA:2,_RNCNvNtNtNtCs45lXedhizVw_8docgraph4core4lint5testss_31test_check_workspace_skip_rumdl0B9_
FNDA:1,_RNCNvNtNtNtCs45lXedhizVw_8docgraph4core4lint5testss_37test_check_workspace_with_rule_filter0B9_
FNDA:0,_RNCNvNtNtNtCs45lXedhizVw_8docgraph4core4lint5testss_37test_check_workspace_with_rule_filters_0B9_
FNDA:1,_RNCNvNtNtNtCs45lXedhizVw_8docgraph4core4lint5testss_41test_check_workspace_with_fix_write_error0B9_
FNF:20
FNH:18
DA:12,37
DA:13,37
DA:14,37
DA:15,36
DA:16,19
DA:17,8
DA:19,37
DA:21,17
DA:22,17
DA:23,17
DA:24,17
DA:25,17
DA:26,17
DA:27,17
DA:28,17
DA:29,17
DA:31,17
DA:32,17
DA:34,17
DA:35,17
DA:36,17
DA:37,17
DA:39,17
DA:41,4
DA:42,4
DA:43,4
DA:44,4
DA:45,284
DA:46,4
DA:47,13
DA:49,11
DA:50,11
DA:51,781
DA:52,11
DA:55,2
DA:58,17
DA:61,34
DA:62,17
DA:63,17
DA:64,17
DA:67,17
DA:68,2
DA:69,2
DA:70,2
DA:71,2
DA:72,2
DA:73,2
DA:76,2
DA:77,2
DA:78,2
DA:79,1
DA:80,1
DA:81,1
DA:82,1
DA:83,1
DA:84,1
DA:85,1
DA:86,1
DA:87,1
DA:88,1
DA:89,1
DA:90,1
DA:91,1
DA:92,0
DA:93,15
DA:96,17
DA:97,17
DA:98,17
DA:99,17
DA:100,17
DA:101,17
DA:102,17
DA:103,17
DA:106,17
DA:108,17
DA:109,49
DA:110,32
DA:113,32
DA:114,29
DA:116,22
DA:117,10
DA:119,10
DA:120,10
DA:122,4
DA:124,6
DA:126,10
DA:127,10
DA:128,10
DA:129,10
DA:130,10
DA:131,10
DA:132,10
DA:133,10
DA:134,10
DA:137,0
DA:139,0
DA:140,0
DA:141,0
DA:146,34
DA:147,17
DA:148,17
DA:149,0
DA:153,17
DA:155,922
DA:156,905
DA:157,54
DA:159,56
DA:160,2
DA:162,2
DA:163,2
DA:164,2
DA:165,0
DA:167,2
DA:168,2
DA:169,2
DA:170,2
DA:171,2
DA:172,2
DA:173,2
DA:174,2
DA:175,2
DA:179,2
DA:180,0
DA:181,2
DA:183,851
DA:187,17
DA:188,2
DA:189,0
DA:192,0
DA:194,0
DA:196,0
DA:197,0
DA:198,0
DA:201,0
DA:202,0
DA:203,0
DA:204,17
DA:209,17
DA:210,17
DA:213,17
DA:214,17
DA:217,17
DA:218,17
DA:220,17
DA:221,17
DA:232,1
DA:233,1
DA:234,1
DA:237,1
DA:238,1
DA:239,1
DA:241,1
DA:242,1
DA:245,1
DA:246,1
DA:247,1
DA:248,2
DA:250,1
DA:253,1
DA:255,1
DA:256,1
DA:257,1
DA:258,1
DA:259,1
DA:261,1
DA:262,1
DA:265,2
DA:266,1
DA:269,1
DA:271,1
DA:272,1
DA:273,1
DA:275,1
DA:276,1
DA:277,1
DA:279,1
DA:282,1
DA:284,1
DA:285,1
DA:286,1
DA:287,1
DA:288,1
DA:289,1
DA:290,1
DA:291,1
DA:292,1
DA:293,1
DA:294,1
DA:295,1
DA:296,1
DA:297,1
DA:298,1
DA:299,1
DA:300,1
DA:303,1
DA:305,1
DA:306,1
DA:307,1
DA:311,1
DA:312,1
DA:313,1
DA:314,1
DA:315,1
DA:318,1
DA:319,1
DA:320,1
DA:324,1
DA:325,1
DA:327,1
DA:329,1
DA:332,1
DA:333,1
DA:334,1
DA:337,1
DA:338,1
DA:339,1
DA:340,1
DA:341,1
DA:343,1
DA:346,1
DA:347,1
DA:349,1
DA:351,1
DA:353,1
DA:356,1
DA:357,1
DA:359,1
DA:361,1
DA:363,1
DA:364,1
DA:367,1
DA:371,1
DA:372,1
DA:374,1
DA:375,1
DA:381,1
DA:382,1
DA:383,1
DA:385,1
DA:388,1
DA:391,1
DA:392,1
DA:393,1
DA:394,1
DA:397,1
BRF:0
BRH:0
LF:255
LH:221
end_of_record
SF:/Users/sonesuke/Desktop/docgraph/src/core/parse.rs
FN:165,_RNvNtNtCs8RsHhL5CoQx_8docgraph4core5parse11extract_all
FN:121,_RNvNtNtCs8RsHhL5CoQx_8docgraph4core5parse21extract_markdown_refs
FN:7,_RNvNtNtCs8RsHhL5CoQx_8docgraph4core5parse23extract_anchor_headings
FN:56,_RNCNvNtNtCs8RsHhL5CoQx_8docgraph4core5parse23extract_anchor_headings0B7_
FN:94,_RNCNvNtNtCs8RsHhL5CoQx_8docgraph4core5parse23extract_anchor_headingss_0B7_
FN:56,_RNCNvNtNtCs45lXedhizVw_8docgraph4core5parse23extract_anchor_headings0B7_
FN:94,_RNCNvNtNtCs45lXedhizVw_8docgraph4core5parse23extract_anchor_headingss_0B7_
FN:165,_RNvNtNtCs45lXedhizVw_8docgraph4core5parse11extract_all
FN:121,_RNvNtNtCs45lXedhizVw_8docgraph4core5parse21extract_markdown_refs
FN:7,_RNvNtNtCs45lXedhizVw_8docgraph4core5parse23extract_anchor_headings
FN:253,_RNvNtNtNtCs45lXedhizVw_8docgraph4core5parse5testss_44test_extract_markdown_refs_skips_code_blocks
FN:177,_RNvNtNtNtCs45lXedhizVw_8docgraph4core5parse5testss_45test_extract_anchor_headings_with_scoped_refs
FN:222,_RNvNtNtNtCs45lXedhizVw_8docgraph4core5parse5testss_46test_extract_anchor_headings_skips_code_blocks
FN:267,_RNCNvNtNtNtCs45lXedhizVw_8docgraph4core5parse5testss_44test_extract_markdown_refs_skips_code_blocks0B9_
FN:211,_RNCNvNtNtNtCs45lXedhizVw_8docgraph4core5parse5testss_45test_extract_anchor_headings_with_scoped_refs0B9_
FN:243,_RNCNvNtNtNtCs45lXedhizVw_8docgraph4core5parse5testss_46test_extract_anchor_headings_skips_code_blocks0B9_
FNDA:29,_RNvNtNtCs8RsHhL5CoQx_8docgraph4core5parse11extract_all
FNDA:29,_RNvNtNtCs8RsHhL5CoQx_8docgraph4core5parse21extract_markdown_refs
FNDA:42,_RNvNtNtCs8RsHhL5CoQx_8docgraph4core5parse23extract_anchor_headings
FNDA:0,_RNCNvNtNtCs8RsHhL5CoQx_8docgraph4core5parse23extract_anchor_headings0B7_
FNDA:5,_RNCNvNtNtCs8RsHhL5CoQx_8docgraph4core5parse23extract_anchor_headingss_0B7_
FNDA:1,_RNCNvNtNtCs45lXedhizVw_8docgraph4core5parse23extract_anchor_headings0B7_
FNDA:6,_RNCNvNtNtCs45lXedhizVw_8docgraph4core5parse23extract_anchor_headingss_0B7_
FNDA:7,_RNvNtNtCs45lXedhizVw_8docgraph4core5parse11extract_all
FNDA:8,_RNvNtNtCs45lXedhizVw_8docgraph4core5parse21extract_markdown_refs
FNDA:17,_RNvNtNtCs45lXedhizVw_8docgraph4core5parse23extract_anchor_headings
FNDA:1,_RNvNtNtNtCs45lXedhizVw_8docgraph4core5parse5testss_44test_extract_markdown_refs_skips_code_blocks
FNDA:1,_RNvNtNtNtCs45lXedhizVw_8docgraph4core5parse5testss_45test_extract_anchor_headings_with_scoped_refs
FNDA:1,_RNvNtNtNtCs45lXedhizVw_8docgraph4core5parse5testss_46test_extract_anchor_headings_skips_code_blocks
FNDA:2,_RNCNvNtNtNtCs45lXedhizVw_8docgraph4core5parse5testss_44test_extract_markdown_refs_skips_code_blocks0B9_
FNDA:2,_RNCNvNtNtNtCs45lXedhizVw_8docgraph4core5parse5testss_45test_extract_anchor_headings_with_scoped_refs0B9_
FNDA:2,_RNCNvNtNtNtCs45lXedhizVw_8docgraph4core5parse5testss_46test_extract_anchor_headings_skips_code_blocks0B9_
FNF:11
FNH:11
DA:7,59
DA:8,59
DA:11,59
DA:13,59
DA:15,59
DA:18,59
DA:19,59
DA:21,59
DA:22,59
DA:23,158
DA:24,99
DA:27,99
DA:28,2
DA:29,2
DA:30,2
DA:31,2
DA:32,97
DA:35,97
DA:36,1
DA:37,1
DA:38,1
DA:39,96
DA:41,96
DA:42,51
DA:45,51
DA:46,91
DA:47,40
DA:48,40
DA:50,51
DA:51,47
DA:52,45
DA:54,45
DA:55,45
DA:56,45
DA:57,45
DA:58,45
DA:59,45
DA:61,2
DA:64,4
DA:67,51
DA:68,51
DA:69,45
DA:70,96
DA:74,59
DA:76,59
DA:77,51
DA:80,51
DA:81,51
DA:82,1
DA:84,50
DA:88,51
DA:89,51
DA:90,36
DA:91,33
DA:92,11
DA:93,11
DA:94,11
DA:95,11
DA:96,11
DA:97,11
DA:98,11
DA:99,11
DA:100,11
DA:101,11
DA:102,0
DA:104,3
DA:107,51
DA:108,51
DA:109,51
DA:110,51
DA:111,51
DA:112,51
DA:113,51
DA:114,51
DA:117,59
DA:118,59
DA:121,37
DA:122,37
DA:125,37
DA:127,37
DA:128,110
DA:129,110
DA:132,110
DA:133,2
DA:134,2
DA:135,108
DA:138,108
DA:139,1
DA:140,107
DA:142,107
DA:144,107
DA:145,8
DA:146,8
DA:147,8
DA:148,8
DA:149,8
DA:150,8
DA:151,8
DA:152,8
DA:153,8
DA:154,8
DA:155,8
DA:156,8
DA:157,8
DA:161,37
DA:162,37
DA:165,36
DA:166,36
DA:167,36
DA:169,36
DA:170,36
DA:177,1
DA:178,1
DA:179,1
DA:180,1
DA:181,1
DA:182,1
DA:183,1
DA:184,1
DA:185,1
DA:186,1
DA:187,1
DA:188,1
DA:189,1
DA:190,1
DA:191,1
DA:192,1
DA:193,1
DA:194,1
DA:195,1
DA:196,1
DA:197,1
DA:198,1
DA:199,1
DA:200,1
DA:201,1
DA:202,1
DA:204,1
DA:207,1
DA:208,1
DA:209,1
DA:210,1
DA:211,2
DA:214,1
DA:215,1
DA:216,1
DA:217,1
DA:218,1
DA:219,1
DA:222,1
DA:223,1
DA:224,1
DA:225,1
DA:226,1
DA:227,1
DA:228,1
DA:229,1
DA:230,1
DA:231,1
DA:232,1
DA:233,1
DA:234,1
DA:235,1
DA:236,1
DA:238,1
DA:239,1
DA:240,1
DA:243,2
DA:244,1
DA:245,1
DA:246,1
DA:247,1
DA:248,0
DA:250,1
DA:253,1
DA:254,1
DA:255,1
DA:256,1
DA:257,1
DA:258,1
DA:259,1
DA:260,1
DA:261,1
DA:262,1
DA:263,1
DA:264,1
DA:267,2
DA:268,1
DA:269,1
DA:270,1
DA:271,1
DA:272,0
DA:274,1
BRF:0
BRH:0
LF:198
LH:194
end_of_record
SF:/Users/sonesuke/Desktop/docgraph/src/core/rules/dg001.rs
FN:13,_RNvXNtNtNtCs8RsHhL5CoQx_8docgraph4core5rules5dg001NtB2_5DG001NtNtCsf6Ci3ytuMGw_9rumdl_lib4rule4Rule11description
FN:63,_RNvXNtNtNtCs8RsHhL5CoQx_8docgraph4core5rules5dg001NtB2_5DG001NtNtCsf6Ci3ytuMGw_9rumdl_lib4rule4Rule3fix
FN:9,_RNvXNtNtNtCs8RsHhL5CoQx_8docgraph4core5rules5dg001NtB2_5DG001NtNtCsf6Ci3ytuMGw_9rumdl_lib4rule4Rule4name
FN:17,_RNvXNtNtNtCs8RsHhL5CoQx_8docgraph4core5rules5dg001NtB2_5DG001NtNtCsf6Ci3ytuMGw_9rumdl_lib4rule4Rule5check
FN:67,_RNvXNtNtNtCs8RsHhL5CoQx_8docgraph4core5rules5dg001NtB2_5DG001NtNtCsf6Ci3ytuMGw_9rumdl_lib4rule4Rule6as_any
FN:77,_RNvNtNtNtNtCs45lXedhizVw_8docgraph4core5rules5dg0015tests8run_rule
FN:86,_RNvNtNtNtNtCs45lXedhizVw_8docgraph4core5rules5dg0015testss_16test_dg001_valid
FN:126,_RNvNtNtNtNtCs45lXedhizVw_8docgraph4core5rules5dg0015testss_19test_dg001_metadata
FN:119,_RNvNtNtNtNtCs45lXedhizVw_8docgraph4core5rules5dg0015testss_22test_dg001_invalid_eof
FN:96,_RNvNtNtNtNtCs45lXedhizVw_8docgraph4core5rules5dg0015testss_29test_dg001_invalid_no_heading
FN:107,_RNvNtNtNtNtCs45lXedhizVw_8docgraph4core5rules5dg0015testss_30test_dg001_valid_with_newlines
FN:13,_RNvXNtNtNtCs45lXedhizVw_8docgraph4core5rules5dg001NtB2_5DG001NtNtCsf6Ci3ytuMGw_9rumdl_lib4rule4Rule11description
FN:63,_RNvXNtNtNtCs45lXedhizVw_8docgraph4core5rules5dg001NtB2_5DG001NtNtCsf6Ci3ytuMGw_9rumdl_lib4rule4Rule3fix
FN:9,_RNvXNtNtNtCs45lXedhizVw_8docgraph4core5rules5dg001NtB2_5DG001NtNtCsf6Ci3ytuMGw_9rumdl_lib4rule4Rule4name
FN:17,_RNvXNtNtNtCs45lXedhizVw_8docgraph4core5rules5dg001NtB2_5DG001NtNtCsf6Ci3ytuMGw_9rumdl_lib4rule4Rule5check
FN:67,_RNvXNtNtNtCs45lXedhizVw_8docgraph4core5rules5dg001NtB2_5DG001NtNtCsf6Ci3ytuMGw_9rumdl_lib4rule4Rule6as_any
FNDA:5,_RNvXNtNtNtCs8RsHhL5CoQx_8docgraph4core5rules5dg001NtB2_5DG001NtNtCsf6Ci3ytuMGw_9rumdl_lib4rule4Rule11description
FNDA:0,_RNvXNtNtNtCs8RsHhL5CoQx_8docgraph4core5rules5dg001NtB2_5DG001NtNtCsf6Ci3ytuMGw_9rumdl_lib4rule4Rule3fix
FNDA:33,_RNvXNtNtNtCs8RsHhL5CoQx_8docgraph4core5rules5dg001NtB2_5DG001NtNtCsf6Ci3ytuMGw_9rumdl_lib4rule4Rule4name
FNDA:11,_RNvXNtNtNtCs8RsHhL5CoQx_8docgraph4core5rules5dg001NtB2_5DG001NtNtCsf6Ci3ytuMGw_9rumdl_lib4rule4Rule5check
FNDA:0,_RNvXNtNtNtCs8RsHhL5CoQx_8docgraph4core5rules5dg001NtB2_5DG001NtNtCsf6Ci3ytuMGw_9rumdl_lib4rule4Rule6as_any
FNDA:4,_RNvNtNtNtNtCs45lXedhizVw_8docgraph4core5rules5dg0015tests8run_rule
FNDA:1,_RNvNtNtNtNtCs45lXedhizVw_8docgraph4core5rules5dg0015testss_16test_dg001_valid
FNDA:1,_RNvNtNtNtNtCs45lXedhizVw_8docgraph4core5rules5dg0015testss_19test_dg001_metadata
FNDA:1,_RNvNtNtNtNtCs45lXedhizVw_8docgraph4core5rules5dg0015testss_22test_dg001_invalid_eof
FNDA:1,_RNvNtNtNtNtCs45lXedhizVw_8docgraph4core5rules5dg0015testss_29test_dg001_invalid_no_heading
FNDA:1,_RNvNtNtNtNtCs45lXedhizVw_8docgraph4core5rules5dg0015testss_30test_dg001_valid_with_newlines
FNDA:1,_RNvXNtNtNtCs45lXedhizVw_8docgraph4core5rules5dg001NtB2_5DG001NtNtCsf6Ci3ytuMGw_9rumdl_lib4rule4Rule11description
FNDA:0,_RNvXNtNtNtCs45lXedhizVw_8docgraph4core5rules5dg001NtB2_5DG001NtNtCsf6Ci3ytuMGw_9rumdl_lib4rule4Rule3fix
FNDA:161,_RNvXNtNtNtCs45lXedhizVw_8docgraph4core5rules5dg001NtB2_5DG001NtNtCsf6Ci3ytuMGw_9rumdl_lib4rule4Rule4name
FNDA:10,_RNvXNtNtNtCs45lXedhizVw_8docgraph4core5rules5dg001NtB2_5DG001NtNtCsf6Ci3ytuMGw_9rumdl_lib4rule4Rule5check
FNDA:0,_RNvXNtNtNtCs45lXedhizVw_8docgraph4core5rules5dg001NtB2_5DG001NtNtCsf6Ci3ytuMGw_9rumdl_lib4rule4Rule6as_any
FNF:11
FNH:9
DA:9,194
DA:10,194
DA:11,194
DA:13,6
DA:14,6
DA:15,6
DA:17,21
DA:18,21
DA:19,21
DA:20,21
DA:23,21
DA:24,21
DA:26,47
DA:27,47
DA:28,17
DA:31,17
DA:32,27
DA:33,10
DA:34,10
DA:36,17
DA:37,13
DA:39,4
DA:42,17
DA:43,6
DA:44,6
DA:45,6
DA:46,6
DA:47,6
DA:48,6
DA:49,6
DA:50,6
DA:51,6
DA:52,6
DA:53,6
DA:54,6
DA:55,6
DA:56,11
DA:57,30
DA:60,21
DA:61,21
DA:63,0
DA:64,0
DA:65,0
DA:67,0
DA:68,0
DA:69,0
DA:77,4
DA:78,4
DA:79,4
DA:80,4
DA:81,4
DA:82,4
DA:83,4
DA:86,1
DA:87,1
DA:88,1
DA:89,1
DA:90,1
DA:91,1
DA:92,1
DA:93,1
DA:96,1
DA:97,1
DA:98,1
DA:99,1
DA:100,1
DA:101,1
DA:102,1
DA:103,1
DA:104,1
DA:107,1
DA:108,1
DA:109,1
DA:110,1
DA:111,1
DA:112,1
DA:113,1
DA:114,1
DA:115,1
DA:116,1
DA:119,1
DA:120,1
DA:121,1
DA:122,1
DA:123,1
DA:126,1
DA:127,1
DA:128,1
DA:129,1
DA:130,1
BRF:0
BRH:0
LF:90
LH:84
end_of_record
SF:/Users/sonesuke/Desktop/docgraph/src/core/rules/dg002.rs
FN:15,_RNvXNtNtNtCs8RsHhL5CoQx_8docgraph4core5rules5dg002NtB2_5DG002NtNtCsf6Ci3ytuMGw_9rumdl_lib4rule4Rule11description
FN:46,_RNvXNtNtNtCs8RsHhL5CoQx_8docgraph4core5rules5dg002NtB2_5DG002NtNtCsf6Ci3ytuMGw_9rumdl_lib4rule4Rule16cross_file_check
FN:42,_RNvXNtNtNtCs8RsHhL5CoQx_8docgraph4core5rules5dg002NtB2_5DG002NtNtCsf6Ci3ytuMGw_9rumdl_lib4rule4Rule16cross_file_scope
FN:23,_RNvXNtNtNtCs8RsHhL5CoQx_8docgraph4core5rules5dg002NtB2_5DG002NtNtCsf6Ci3ytuMGw_9rumdl_lib4rule4Rule19contribute_to_index
FN:87,_RNvXNtNtNtCs8RsHhL5CoQx_8docgraph4core5rules5dg002NtB2_5DG002NtNtCsf6Ci3ytuMGw_9rumdl_lib4rule4Rule3fix
FN:11,_RNvXNtNtNtCs8RsHhL5CoQx_8docgraph4core5rules5dg002NtB2_5DG002NtNtCsf6Ci3ytuMGw_9rumdl_lib4rule4Rule4name
FN:19,_RNvXNtNtNtCs8RsHhL5CoQx_8docgraph4core5rules5dg002NtB2_5DG002NtNtCsf6Ci3ytuMGw_9rumdl_lib4rule4Rule5check
FN:91,_RNvXNtNtNtCs8RsHhL5CoQx_8docgraph4core5rules5dg002NtB2_5DG002NtNtCsf6Ci3ytuMGw_9rumdl_lib4rule4Rule6as_any
FN:101,_RNvNtNtNtNtCs45lXedhizVw_8docgraph4core5rules5dg0025tests13index_content
FN:116,_RNvNtNtNtNtCs45lXedhizVw_8docgraph4core5rules5dg0025testss_21test_dg002_unique_ids
FN:135,_RNvNtNtNtNtCs45lXedhizVw_8docgraph4core5rules5dg0025testss_33test_dg002_duplicate_across_files
FN:15,_RNvXNtNtNtCs45lXedhizVw_8docgraph4core5rules5dg002NtB2_5DG002NtNtCsf6Ci3ytuMGw_9rumdl_lib4rule4Rule11description
FN:46,_RNvXNtNtNtCs45lXedhizVw_8docgraph4core5rules5dg002NtB2_5DG002NtNtCsf6Ci3ytuMGw_9rumdl_lib4rule4Rule16cross_file_check
FN:42,_RNvXNtNtNtCs45lXedhizVw_8docgraph4core5rules5dg002NtB2_5DG002NtNtCsf6Ci3ytuMGw_9rumdl_lib4rule4Rule16cross_file_scope
FN:23,_RNvXNtNtNtCs45lXedhizVw_8docgraph4core5rules5dg002NtB2_5DG002NtNtCsf6Ci3ytuMGw_9rumdl_lib4rule4Rule19contribute_to_index
FN:87,_RNvXNtNtNtCs45lXedhizVw_8docgraph4core5rules5dg002NtB2_5DG002NtNtCsf6Ci3ytuMGw_9rumdl_lib4rule4Rule3fix
FN:11,_RNvXNtNtNtCs45lXedhizVw_8docgraph4core5rules5dg002NtB2_5DG002NtNtCsf6Ci3ytuMGw_9rumdl_lib4rule4Rule4name
FN:19,_RNvXNtNtNtCs45lXedhizVw_8docgraph4core5rules5dg002NtB2_5DG002NtNtCsf6Ci3ytuMGw_9rumdl_lib4rule4Rule5check
FN:91,_RNvXNtNtNtCs45lXedhizVw_8docgraph4core5rules5dg002NtB2_5DG002NtNtCsf6Ci3ytuMGw_9rumdl_lib4rule4Rule6as_any
FNDA:1,_RNvXNtNtNtCs8RsHhL5CoQx_8docgraph4core5rules5dg002NtB2_5DG002NtNtCsf6Ci3ytuMGw_9rumdl_lib4rule4Rule11description
FNDA:9,_RNvXNtNtNtCs8RsHhL5CoQx_8docgraph4core5rules5dg002NtB2_5DG002NtNtCsf6Ci3ytuMGw_9rumdl_lib4rule4Rule16cross_file_check
FNDA:18,_RNvXNtNtNtCs8RsHhL5CoQx_8docgraph4core5rules5dg002NtB2_5DG002NtNtCsf6Ci3ytuMGw_9rumdl_lib4rule4Rule16cross_file_scope
FNDA:9,_RNvXNtNtNtCs8RsHhL5CoQx_8docgraph4core5rules5dg002NtB2_5DG002NtNtCsf6Ci3ytuMGw_9rumdl_lib4rule4Rule19contribute_to_index
FNDA:0,_RNvXNtNtNtCs8RsHhL5CoQx_8docgraph4core5rules5dg002NtB2_5DG002NtNtCsf6Ci3ytuMGw_9rumdl_lib4rule4Rule3fix
FNDA:23,_RNvXNtNtNtCs8RsHhL5CoQx_8docgraph4core5rules5dg002NtB2_5DG002NtNtCsf6Ci3ytuMGw_9rumdl_lib4rule4Rule4name
FNDA:9,_RNvXNtNtNtCs8RsHhL5CoQx_8docgraph4core5rules5dg002NtB2_5DG002NtNtCsf6Ci3ytuMGw_9rumdl_lib4rule4Rule5check
FNDA:0,_RNvXNtNtNtCs8RsHhL5CoQx_8docgraph4core5rules5dg002NtB2_5DG002NtNtCsf6Ci3ytuMGw_9rumdl_lib4rule4Rule6as_any
FNDA:4,_RNvNtNtNtNtCs45lXedhizVw_8docgraph4core5rules5dg0025tests13index_content
FNDA:1,_RNvNtNtNtNtCs45lXedhizVw_8docgraph4core5rules5dg0025testss_21test_dg002_unique_ids
FNDA:1,_RNvNtNtNtNtCs45lXedhizVw_8docgraph4core5rules5dg0025testss_33test_dg002_duplicate_across_files
FNDA:0,_RNvXNtNtNtCs45lXedhizVw_8docgraph4core5rules5dg002NtB2_5DG002NtNtCsf6Ci3ytuMGw_9rumdl_lib4rule4Rule11description
FNDA:6,_RNvXNtNtNtCs45lXedhizVw_8docgraph4core5rules5dg002NtB2_5DG002NtNtCsf6Ci3ytuMGw_9rumdl_lib4rule4Rule16cross_file_check
FNDA:23,_RNvXNtNtNtCs45lXedhizVw_8docgraph4core5rules5dg002NtB2_5DG002NtNtCsf6Ci3ytuMGw_9rumdl_lib4rule4Rule16cross_file_scope
FNDA:19,_RNvXNtNtNtCs45lXedhizVw_8docgraph4core5rules5dg002NtB2_5DG002NtNtCsf6Ci3ytuMGw_9rumdl_lib4rule4Rule19contribute_to_index
FNDA:0,_RNvXNtNtNtCs45lXedhizVw_8docgraph4core5rules5dg002NtB2_5DG002NtNtCsf6Ci3ytuMGw_9rumdl_lib4rule4Rule3fix
FNDA:156,_RNvXNtNtNtCs45lXedhizVw_8docgraph4core5rules5dg002NtB2_5DG002NtNtCsf6Ci3ytuMGw_9rumdl_lib4rule4Rule4name
FNDA:21,_RNvXNtNtNtCs45lXedhizVw_8docgraph4core5rules5dg002NtB2_5DG002NtNtCsf6Ci3ytuMGw_9rumdl_lib4rule4Rule5check
FNDA:0,_RNvXNtNtNtCs45lXedhizVw_8docgraph4core5rules5dg002NtB2_5DG002NtNtCsf6Ci3ytuMGw_9rumdl_lib4rule4Rule6as_any
FNF:11
FNH:9
DA:11,179
DA:12,179
DA:13,179
DA:15,1
DA:16,1
DA:17,1
DA:19,30
DA:20,30
DA:21,30
DA:23,28
DA:26,28
DA:27,47
DA:28,47
DA:29,20
DA:30,20
DA:31,20
DA:32,20
DA:33,20
DA:34,20
DA:35,20
DA:36,20
DA:37,20
DA:40,28
DA:42,41
DA:43,41
DA:44,41
DA:46,15
DA:47,15
DA:48,15
DA:49,15
DA:50,15
DA:51,15
DA:52,15
DA:55,28
DA:56,13
DA:58,17
DA:59,17
DA:60,11
DA:61,6
DA:63,6
DA:64,3
DA:65,3
DA:66,3
DA:67,3
DA:68,3
DA:69,3
DA:70,3
DA:71,3
DA:72,3
DA:73,3
DA:74,3
DA:75,3
DA:76,3
DA:77,3
DA:78,3
DA:79,3
DA:81,0
DA:84,15
DA:85,15
DA:87,0
DA:88,0
DA:89,0
DA:91,0
DA:92,0
DA:93,0
DA:101,4
DA:102,4
DA:103,4
DA:104,4
DA:105,4
DA:106,4
DA:107,4
DA:108,4
DA:109,4
DA:110,4
DA:111,4
DA:112,4
DA:113,4
DA:116,1
DA:117,1
DA:118,1
DA:119,1
DA:120,1
DA:122,1
DA:123,1
DA:125,1
DA:126,1
DA:127,1
DA:129,1
DA:130,1
DA:131,1
DA:132,1
DA:135,1
DA:136,1
DA:137,1
DA:138,1
DA:139,1
DA:141,1
DA:142,1
DA:144,1
DA:145,1
DA:146,1
DA:148,1
DA:149,1
DA:150,1
DA:151,1
DA:152,1
BRF:0
BRH:0
LF:107
LH:100
end_of_record
SF:/Users/sonesuke/Desktop/docgraph/src/core/rules/dg003.rs
FN:52,_RNCNCNvXNtNtNtCs8RsHhL5CoQx_8docgraph4core5rules5dg003NtB6_5DG003NtNtCsf6Ci3ytuMGw_9rumdl_lib4rule4Rule16cross_file_checks_00Bc_
FN:47,_RNCNvXNtNtNtCs8RsHhL5CoQx_8docgraph4core5rules5dg003NtB4_5DG003NtNtCsf6Ci3ytuMGw_9rumdl_lib4rule4Rule16cross_file_check0Ba_
FN:69,_RNCNvXNtNtNtCs8RsHhL5CoQx_8docgraph4core5rules5dg003NtB4_5DG003NtNtCsf6Ci3ytuMGw_9rumdl_lib4rule4Rule16cross_file_checks0_0Ba_
FN:123,_RNCNvXNtNtNtCs8RsHhL5CoQx_8docgraph4core5rules5dg003NtB4_5DG003NtNtCsf6Ci3ytuMGw_9rumdl_lib4rule4Rule16cross_file_checks1_0Ba_
FN:149,_RNCNvXNtNtNtCs8RsHhL5CoQx_8docgraph4core5rules5dg003NtB4_5DG003NtNtCsf6Ci3ytuMGw_9rumdl_lib4rule4Rule16cross_file_checks2_0Ba_
FN:50,_RNCNvXNtNtNtCs8RsHhL5CoQx_8docgraph4core5rules5dg003NtB4_5DG003NtNtCsf6Ci3ytuMGw_9rumdl_lib4rule4Rule16cross_file_checks_0Ba_
FN:16,_RNvXNtNtNtCs8RsHhL5CoQx_8docgraph4core5rules5dg003NtB2_5DG003NtNtCsf6Ci3ytuMGw_9rumdl_lib4rule4Rule11description
FN:28,_RNvXNtNtNtCs8RsHhL5CoQx_8docgraph4core5rules5dg003NtB2_5DG003NtNtCsf6Ci3ytuMGw_9rumdl_lib4rule4Rule16cross_file_check
FN:24,_RNvXNtNtNtCs8RsHhL5CoQx_8docgraph4core5rules5dg003NtB2_5DG003NtNtCsf6Ci3ytuMGw_9rumdl_lib4rule4Rule16cross_file_scope
FN:219,_RNvXNtNtNtCs8RsHhL5CoQx_8docgraph4core5rules5dg003NtB2_5DG003NtNtCsf6Ci3ytuMGw_9rumdl_lib4rule4Rule3fix
FN:12,_RNvXNtNtNtCs8RsHhL5CoQx_8docgraph4core5rules5dg003NtB2_5DG003NtNtCsf6Ci3ytuMGw_9rumdl_lib4rule4Rule4name
FN:20,_RNvXNtNtNtCs8RsHhL5CoQx_8docgraph4core5rules5dg003NtB2_5DG003NtNtCsf6Ci3ytuMGw_9rumdl_lib4rule4Rule5check
FN:223,_RNvXNtNtNtCs8RsHhL5CoQx_8docgraph4core5rules5dg003NtB2_5DG003NtNtCsf6Ci3ytuMGw_9rumdl_lib4rule4Rule6as_any
FN:52,_RNCNCNvXNtNtNtCs45lXedhizVw_8docgraph4core5rules5dg003NtB6_5DG003NtNtCsf6Ci3ytuMGw_9rumdl_lib4rule4Rule16cross_file_checks_00Bc_
FN:47,_RNCNvXNtNtNtCs45lXedhizVw_8docgraph4core5rules5dg003NtB4_5DG003NtNtCsf6Ci3ytuMGw_9rumdl_lib4rule4Rule16cross_file_check0Ba_
FN:69,_RNCNvXNtNtNtCs45lXedhizVw_8docgraph4core5rules5dg003NtB4_5DG003NtNtCsf6Ci3ytuMGw_9rumdl_lib4rule4Rule16cross_file_checks0_0Ba_
FN:123,_RNCNvXNtNtNtCs45lXedhizVw_8docgraph4core5rules5dg003NtB4_5DG003NtNtCsf6Ci3ytuMGw_9rumdl_lib4rule4Rule16cross_file_checks1_0Ba_
FN:149,_RNCNvXNtNtNtCs45lXedhizVw_8docgraph4core5rules5dg003NtB4_5DG003NtNtCsf6Ci3ytuMGw_9rumdl_lib4rule4Rule16cross_file_checks2_0Ba_
FN:50,_RNCNvXNtNtNtCs45lXedhizVw_8docgraph4core5rules5dg003NtB4_5DG003NtNtCsf6Ci3ytuMGw_9rumdl_lib4rule4Rule16cross_file_checks_0Ba_
FN:16,_RNvXNtNtNtCs45lXedhizVw_8docgraph4core5rules5dg003NtB2_5DG003NtNtCsf6Ci3ytuMGw_9rumdl_lib4rule4Rule11description
FN:28,_RNvXNtNtNtCs45lXedhizVw_8docgraph4core5rules5dg003NtB2_5DG003NtNtCsf6Ci3ytuMGw_9rumdl_lib4rule4Rule16cross_file_check
FN:24,_RNvXNtNtNtCs45lXedhizVw_8docgraph4core5rules5dg003NtB2_5DG003NtNtCsf6Ci3ytuMGw_9rumdl_lib4rule4Rule16cross_file_scope
FN:219,_RNvXNtNtNtCs45lXedhizVw_8docgraph4core5rules5dg003NtB2_5DG003NtNtCsf6Ci3ytuMGw_9rumdl_lib4rule4Rule3fix
FN:12,_RNvXNtNtNtCs45lXedhizVw_8docgraph4core5rules5dg003NtB2_5DG003NtNtCsf6Ci3ytuMGw_9rumdl_lib4rule4Rule4name
FN:20,_RNvXNtNtNtCs45lXedhizVw_8docgraph4core5rules5dg003NtB2_5DG003NtNtCsf6Ci3ytuMGw_9rumdl_lib4rule4Rule5check
FN:223,_RNvXNtNtNtCs45lXedhizVw_8docgraph4core5rules5dg003NtB2_5DG003NtNtCsf6Ci3ytuMGw_9rumdl_lib4rule4Rule6as_any
FN:236,_RNvNtNtNtNtCs45lXedhizVw_8docgraph4core5rules5dg0035tests13index_content
FN:399,_RNvNtNtNtNtCs45lXedhizVw_8docgraph4core5rules5dg0035testss_21test_dg003_read_error
FN:296,_RNvNtNtNtNtCs45lXedhizVw_8docgraph4core5rules5dg0035testss_22test_dg003_broken_link
FN:315,_RNvNtNtNtNtCs45lXedhizVw_8docgraph4core5rules5dg0035testss_25test_dg003_ambiguous_link
FN:253,_RNvNtNtNtNtCs45lXedhizVw_8docgraph4core5rules5dg0035testss_27test_dg003_valid_local_link
FN:272,_RNvNtNtNtNtCs45lXedhizVw_8docgraph4core5rules5dg0035testss_32test_dg003_valid_cross_file_link
FN:359,_RNvNtNtNtNtCs45lXedhizVw_8docgraph4core5rules5dg0035testss_34test_dg003_explicit_link_ambiguous
FN:342,_RNvNtNtNtNtCs45lXedhizVw_8docgraph4core5rules5dg0035testss_37test_dg003_explicit_link_missing_file
FNDA:0,_RNCNCNvXNtNtNtCs8RsHhL5CoQx_8docgraph4core5rules5dg003NtB6_5DG003NtNtCsf6Ci3ytuMGw_9rumdl_lib4rule4Rule16cross_file_checks_00Bc_
FNDA:25,_RNCNvXNtNtNtCs8RsHhL5CoQx_8docgraph4core5rules5dg003NtB4_5DG003NtNtCsf6Ci3ytuMGw_9rumdl_lib4rule4Rule16cross_file_check0Ba_
FNDA:0,_RNCNvXNtNtNtCs8RsHhL5CoQx_8docgraph4core5rules5dg003NtB4_5DG003NtNtCsf6Ci3ytuMGw_9rumdl_lib4rule4Rule16cross_file_checks0_0Ba_
FNDA:0,_RNCNvXNtNtNtCs8RsHhL5CoQx_8docgraph4core5rules5dg003NtB4_5DG003NtNtCsf6Ci3ytuMGw_9rumdl_lib4rule4Rule16cross_file_checks1_0Ba_
FNDA:0,_RNCNvXNtNtNtCs8RsHhL5CoQx_8docgraph4core5rules5dg003NtB4_5DG003NtNtCsf6Ci3ytuMGw_9rumdl_lib4rule4Rule16cross_file_checks2_0Ba_
FNDA:0,_RNCNvXNtNtNtCs8RsHhL5CoQx_8docgraph4core5rules5dg003NtB4_5DG003NtNtCsf6Ci3ytuMGw_9rumdl_lib4rule4Rule16cross_file_checks_0Ba_
FNDA:1,_RNvXNtNtNtCs8RsHhL5CoQx_8docgraph4core5rules5dg003NtB2_5DG003NtNtCsf6Ci3ytuMGw_9rumdl_lib4rule4Rule11description
FNDA:9,_RNvXNtNtNtCs8RsHhL5CoQx_8docgraph4core5rules5dg003NtB2_5DG003NtNtCsf6Ci3ytuMGw_9rumdl_lib4rule4Rule16cross_file_check
FNDA:18,_RNvXNtNtNtCs8RsHhL5CoQx_8docgraph4core5rules5dg003NtB2_5DG003NtNtCsf6Ci3ytuMGw_9rumdl_lib4rule4Rule16cross_file_scope
FNDA:0,_RNvXNtNtNtCs8RsHhL5CoQx_8docgraph4core5rules5dg003NtB2_5DG003NtNtCsf6Ci3ytuMGw_9rumdl_lib4rule4Rule3fix
FNDA:23,_RNvXNtNtNtCs8RsHhL5CoQx_8docgraph4core5rules5dg003NtB2_5DG003NtNtCsf6Ci3ytuMGw_9rumdl_lib4rule4Rule4name
FNDA:9,_RNvXNtNtNtCs8RsHhL5CoQx_8docgraph4core5rules5dg003NtB2_5DG003NtNtCsf6Ci3ytuMGw_9rumdl_lib4rule4Rule5check
FNDA:0,_RNvXNtNtNtCs8RsHhL5CoQx_8docgraph4core5rules5dg003NtB2_5DG003NtNtCsf6Ci3ytuMGw_9rumdl_lib4rule4Rule6as_any
FNDA:14,_RNCNCNvXNtNtNtCs45lXedhizVw_8docgraph4core5rules5dg003NtB6_5DG003NtNtCsf6Ci3ytuMGw_9rumdl_lib4rule4Rule16cross_file_checks_00Bc_
FNDA:4,_RNCNvXNtNtNtCs45lXedhizVw_8docgraph4core5rules5dg003NtB4_5DG003NtNtCsf6Ci3ytuMGw_9rumdl_lib4rule4Rule16cross_file_check0Ba_
FNDA:3,_RNCNvXNtNtNtCs45lXedhizVw_8docgraph4core5rules5dg003NtB4_5DG003NtNtCsf6Ci3ytuMGw_9rumdl_lib4rule4Rule16cross_file_checks0_0Ba_
FNDA:0,_RNCNvXNtNtNtCs45lXedhizVw_8docgraph4core5rules5dg003NtB4_5DG003NtNtCsf6Ci3ytuMGw_9rumdl_lib4rule4Rule16cross_file_checks1_0Ba_
FNDA:2,_RNCNvXNtNtNtCs45lXedhizVw_8docgraph4core5rules5dg003NtB4_5DG003NtNtCsf6Ci3ytuMGw_9rumdl_lib4rule4Rule16cross_file_checks2_0Ba_
FNDA:12,_RNCNvXNtNtNtCs45lXedhizVw_8docgraph4core5rules5dg003NtB4_5DG003NtNtCsf6Ci3ytuMGw_9rumdl_lib4rule4Rule16cross_file_checks_0Ba_
FNDA:0,_RNvXNtNtNtCs45lXedhizVw_8docgraph4core5rules5dg003NtB2_5DG003NtNtCsf6Ci3ytuMGw_9rumdl_lib4rule4Rule11description
FNDA:11,_RNvXNtNtNtCs45lXedhizVw_8docgraph4core5rules5dg003NtB2_5DG003NtNtCsf6Ci3ytuMGw_9rumdl_lib4rule4Rule16cross_file_check
FNDA:19,_RNvXNtNtNtCs45lXedhizVw_8docgraph4core5rules5dg003NtB2_5DG003NtNtCsf6Ci3ytuMGw_9rumdl_lib4rule4Rule16cross_file_scope
FNDA:0,_RNvXNtNtNtCs45lXedhizVw_8docgraph4core5rules5dg003NtB2_5DG003NtNtCsf6Ci3ytuMGw_9rumdl_lib4rule4Rule3fix
FNDA:156,_RNvXNtNtNtCs45lXedhizVw_8docgraph4core5rules5dg003NtB2_5DG003NtNtCsf6Ci3ytuMGw_9rumdl_lib4rule4Rule4name
FNDA:17,_RNvXNtNtNtCs45lXedhizVw_8docgraph4core5rules5dg003NtB2_5DG003NtNtCsf6Ci3ytuMGw_9rumdl_lib4rule4Rule5check
FNDA:0,_RNvXNtNtNtCs45lXedhizVw_8docgraph4core5rules5dg003NtB2_5DG003NtNtCsf6Ci3ytuMGw_9rumdl_lib4rule4Rule6as_any
FNDA:12,_RNvNtNtNtNtCs45lXedhizVw_8docgraph4core5rules5dg0035tests13index_content
FNDA:1,_RNvNtNtNtNtCs45lXedhizVw_8docgraph4core5rules5dg0035testss_21test_dg003_read_error
FNDA:1,_RNvNtNtNtNtCs45lXedhizVw_8docgraph4core5rules5dg0035testss_22test_dg003_broken_link
FNDA:1,_RNvNtNtNtNtCs45lXedhizVw_8docgraph4core5rules5dg0035testss_25test_dg003_ambiguous_link
FNDA:1,_RNvNtNtNtNtCs45lXedhizVw_8docgraph4core5rules5dg0035testss_27test_dg003_valid_local_link
FNDA:1,_RNvNtNtNtNtCs45lXedhizVw_8docgraph4core5rules5dg0035testss_32test_dg003_valid_cross_file_link
FNDA:1,_RNvNtNtNtNtCs45lXedhizVw_8docgraph4core5rules5dg0035testss_34test_dg003_explicit_link_ambiguous
FNDA:1,_RNvNtNtNtNtCs45lXedhizVw_8docgraph4core5rules5dg0035testss_37test_dg003_explicit_link_missing_file
FNF:21
FNH:18
DA:12,179
DA:13,179
DA:14,179
DA:16,1
DA:17,1
DA:18,1
DA:20,26
DA:21,26
DA:22,26
DA:24,37
DA:25,37
DA:26,37
DA:28,20
DA:29,20
DA:30,20
DA:31,20
DA:32,20
DA:33,20
DA:34,20
DA:36,20
DA:37,19
DA:38,1
DA:43,19
DA:46,19
DA:47,29
DA:48,19
DA:50,19
DA:51,12
DA:52,14
DA:53,12
DA:54,12
DA:55,12
DA:56,12
DA:59,19
DA:61,19
DA:62,6
DA:65,6
DA:66,3
DA:67,3
DA:69,3
DA:70,1
DA:71,2
DA:74,2
DA:75,3
DA:76,3
DA:77,1
DA:78,1
DA:79,2
DA:82,2
DA:83,1
DA:84,1
DA:85,1
DA:86,1
DA:87,1
DA:88,1
DA:89,1
DA:90,1
DA:91,1
DA:92,1
DA:93,1
DA:94,1
DA:95,1
DA:96,1
DA:97,1
DA:98,1
DA:99,1
DA:100,1
DA:101,1
DA:102,1
DA:103,1
DA:104,1
DA:105,1
DA:106,1
DA:107,1
DA:108,1
DA:109,1
DA:110,1
DA:111,1
DA:112,1
DA:113,1
DA:114,1
DA:115,1
DA:118,3
DA:119,3
DA:120,3
DA:123,3
DA:124,3
DA:126,3
DA:127,3
DA:130,3
DA:131,2
DA:134,1
DA:139,2
DA:140,6
DA:141,6
DA:142,6
DA:144,2
DA:145,2
DA:146,4
DA:149,2
DA:151,1
DA:152,1
DA:155,1
DA:156,4
DA:157,4
DA:158,2
DA:159,2
DA:162,1
DA:163,0
DA:164,0
DA:165,0
DA:166,0
DA:167,0
DA:168,0
DA:169,0
DA:170,0
DA:171,0
DA:172,0
DA:173,1
DA:174,0
DA:175,0
DA:176,0
DA:177,0
DA:178,0
DA:179,0
DA:180,0
DA:181,0
DA:182,0
DA:183,0
DA:184,0
DA:185,0
DA:186,0
DA:187,0
DA:188,0
DA:189,0
DA:190,0
DA:191,0
DA:192,0
DA:193,0
DA:194,0
DA:195,0
DA:196,0
DA:197,1
DA:198,1
DA:199,1
DA:200,1
DA:201,1
DA:202,1
DA:203,1
DA:204,1
DA:205,1
DA:206,1
DA:207,1
DA:208,1
DA:209,1
DA:210,1
DA:211,1
DA:212,1
DA:213,0
DA:216,19
DA:217,20
DA:219,0
DA:220,0
DA:221,0
DA:223,0
DA:224,0
DA:225,0
DA:236,12
DA:237,12
DA:238,12
DA:239,12
DA:240,12
DA:241,12
DA:242,12
DA:243,12
DA:244,12
DA:245,12
DA:246,12
DA:247,12
DA:248,12
DA:249,12
DA:250,12
DA:253,1
DA:254,1
DA:255,1
DA:257,1
DA:258,1
DA:259,1
DA:261,1
DA:263,1
DA:264,1
DA:266,1
DA:267,1
DA:268,1
DA:269,1
DA:272,1
DA:273,1
DA:274,1
DA:275,1
DA:277,1
DA:278,1
DA:280,1
DA:281,1
DA:283,1
DA:284,1
DA:286,1
DA:287,1
DA:288,1
DA:290,1
DA:291,1
DA:292,1
DA:293,1
DA:296,1
DA:297,1
DA:298,1
DA:301,1
DA:302,1
DA:304,1
DA:305,1
DA:306,1
DA:308,1
DA:309,1
DA:310,1
DA:311,1
DA:312,1
DA:315,1
DA:316,1
DA:317,1
DA:318,1
DA:320,1
DA:321,1
DA:323,1
DA:324,1
DA:326,1
DA:327,1
DA:329,1
DA:330,1
DA:331,1
DA:333,1
DA:334,1
DA:336,1
DA:337,1
DA:338,1
DA:339,1
DA:342,1
DA:343,1
DA:344,1
DA:345,1
DA:346,1
DA:348,1
DA:349,1
DA:350,1
DA:352,1
DA:354,1
DA:355,1
DA:356,1
DA:359,1
DA:360,1
DA:361,1
DA:364,1
DA:365,1
DA:366,1
DA:368,1
DA:369,1
DA:370,1
DA:371,1
DA:373,1
DA:374,1
DA:375,1
DA:376,1
DA:378,1
DA:379,1
DA:380,1
DA:381,1
DA:383,1
DA:384,1
DA:385,1
DA:386,1
DA:387,1
DA:389,1
DA:390,1
DA:393,1
DA:394,1
DA:395,1
DA:396,1
DA:399,1
DA:403,1
DA:404,1
DA:405,1
DA:407,1
DA:408,1
DA:409,1
DA:411,1
DA:412,1
DA:413,1
DA:415,1
DA:416,1
DA:417,1
DA:419,1
BRF:0
BRH:0
LF:305
LH:264
end_of_record
SF:/Users/sonesuke/Desktop/docgraph/src/core/rules/dg004.rs
FN:66,_RNCNCNvXNtNtNtCs8RsHhL5CoQx_8docgraph4core5rules5dg004NtB6_5DG004NtNtCsf6Ci3ytuMGw_9rumdl_lib4rule4Rule16cross_file_checks_00Bc_
FN:61,_RNCNvXNtNtNtCs8RsHhL5CoQx_8docgraph4core5rules5dg004NtB4_5DG004NtNtCsf6Ci3ytuMGw_9rumdl_lib4rule4Rule16cross_file_check0Ba_
FN:87,_RNCNvXNtNtNtCs8RsHhL5CoQx_8docgraph4core5rules5dg004NtB4_5DG004NtNtCsf6Ci3ytuMGw_9rumdl_lib4rule4Rule16cross_file_checks0_0Ba_
FN:96,_RNCNvXNtNtNtCs8RsHhL5CoQx_8docgraph4core5rules5dg004NtB4_5DG004NtNtCsf6Ci3ytuMGw_9rumdl_lib4rule4Rule16cross_file_checks1_0Ba_
FN:64,_RNCNvXNtNtNtCs8RsHhL5CoQx_8docgraph4core5rules5dg004NtB4_5DG004NtNtCsf6Ci3ytuMGw_9rumdl_lib4rule4Rule16cross_file_checks_0Ba_
FN:17,_RNvXNtNtNtCs8RsHhL5CoQx_8docgraph4core5rules5dg004NtB2_5DG004NtNtCsf6Ci3ytuMGw_9rumdl_lib4rule4Rule11description
FN:29,_RNvXNtNtNtCs8RsHhL5CoQx_8docgraph4core5rules5dg004NtB2_5DG004NtNtCsf6Ci3ytuMGw_9rumdl_lib4rule4Rule16cross_file_check
FN:25,_RNvXNtNtNtCs8RsHhL5CoQx_8docgraph4core5rules5dg004NtB2_5DG004NtNtCsf6Ci3ytuMGw_9rumdl_lib4rule4Rule16cross_file_scope
FN:138,_RNvXNtNtNtCs8RsHhL5CoQx_8docgraph4core5rules5dg004NtB2_5DG004NtNtCsf6Ci3ytuMGw_9rumdl_lib4rule4Rule3fix
FN:13,_RNvXNtNtNtCs8RsHhL5CoQx_8docgraph4core5rules5dg004NtB2_5DG004NtNtCsf6Ci3ytuMGw_9rumdl_lib4rule4Rule4name
FN:21,_RNvXNtNtNtCs8RsHhL5CoQx_8docgraph4core5rules5dg004NtB2_5DG004NtNtCsf6Ci3ytuMGw_9rumdl_lib4rule4Rule5check
FN:142,_RNvXNtNtNtCs8RsHhL5CoQx_8docgraph4core5rules5dg004NtB2_5DG004NtNtCsf6Ci3ytuMGw_9rumdl_lib4rule4Rule6as_any
FN:66,_RNCNCNvXNtNtNtCs45lXedhizVw_8docgraph4core5rules5dg004NtB6_5DG004NtNtCsf6Ci3ytuMGw_9rumdl_lib4rule4Rule16cross_file_checks_00Bc_
FN:61,_RNCNvXNtNtNtCs45lXedhizVw_8docgraph4core5rules5dg004NtB4_5DG004NtNtCsf6Ci3ytuMGw_9rumdl_lib4rule4Rule16cross_file_check0Ba_
FN:87,_RNCNvXNtNtNtCs45lXedhizVw_8docgraph4core5rules5dg004NtB4_5DG004NtNtCsf6Ci3ytuMGw_9rumdl_lib4rule4Rule16cross_file_checks0_0Ba_
FN:96,_RNCNvXNtNtNtCs45lXedhizVw_8docgraph4core5rules5dg004NtB4_5DG004NtNtCsf6Ci3ytuMGw_9rumdl_lib4rule4Rule16cross_file_checks1_0Ba_
FN:64,_RNCNvXNtNtNtCs45lXedhizVw_8docgraph4core5rules5dg004NtB4_5DG004NtNtCsf6Ci3ytuMGw_9rumdl_lib4rule4Rule16cross_file_checks_0Ba_
FN:152,_RNvNtNtNtNtCs45lXedhizVw_8docgraph4core5rules5dg0045tests13index_content
FN:167,_RNvNtNtNtNtCs45lXedhizVw_8docgraph4core5rules5dg0045testss_20test_dg004_link_text
FN:203,_RNvNtNtNtNtCs45lXedhizVw_8docgraph4core5rules5dg0045testss_24test_dg004_cleaned_title
FN:17,_RNvXNtNtNtCs45lXedhizVw_8docgraph4core5rules5dg004NtB2_5DG004NtNtCsf6Ci3ytuMGw_9rumdl_lib4rule4Rule11description
FN:29,_RNvXNtNtNtCs45lXedhizVw_8docgraph4core5rules5dg004NtB2_5DG004NtNtCsf6Ci3ytuMGw_9rumdl_lib4rule4Rule16cross_file_check
FN:25,_RNvXNtNtNtCs45lXedhizVw_8docgraph4core5rules5dg004NtB2_5DG004NtNtCsf6Ci3ytuMGw_9rumdl_lib4rule4Rule16cross_file_scope
FN:138,_RNvXNtNtNtCs45lXedhizVw_8docgraph4core5rules5dg004NtB2_5DG004NtNtCsf6Ci3ytuMGw_9rumdl_lib4rule4Rule3fix
FN:13,_RNvXNtNtNtCs45lXedhizVw_8docgraph4core5rules5dg004NtB2_5DG004NtNtCsf6Ci3ytuMGw_9rumdl_lib4rule4Rule4name
FN:21,_RNvXNtNtNtCs45lXedhizVw_8docgraph4core5rules5dg004NtB2_5DG004NtNtCsf6Ci3ytuMGw_9rumdl_lib4rule4Rule5check
FN:142,_RNvXNtNtNtCs45lXedhizVw_8docgraph4core5rules5dg004NtB2_5DG004NtNtCsf6Ci3ytuMGw_9rumdl_lib4rule4Rule6as_any
FNDA:0,_RNCNCNvXNtNtNtCs8RsHhL5CoQx_8docgraph4core5rules5dg004NtB6_5DG004NtNtCsf6Ci3ytuMGw_9rumdl_lib4rule4Rule16cross_file_checks_00Bc_
FNDA:25,_RNCNvXNtNtNtCs8RsHhL5CoQx_8docgraph4core5rules5dg004NtB4_5DG004NtNtCsf6Ci3ytuMGw_9rumdl_lib4rule4Rule16cross_file_check0Ba_
FNDA:0,_RNCNvXNtNtNtCs8RsHhL5CoQx_8docgraph4core5rules5dg004NtB4_5DG004NtNtCsf6Ci3ytuMGw_9rumdl_lib4rule4Rule16cross_file_checks0_0Ba_
FNDA:0,_RNCNvXNtNtNtCs8RsHhL5CoQx_8docgraph4core5rules5dg004NtB4_5DG004NtNtCsf6Ci3ytuMGw_9rumdl_lib4rule4Rule16cross_file_checks1_0Ba_
FNDA:0,_RNCNvXNtNtNtCs8RsHhL5CoQx_8docgraph4core5rules5dg004NtB4_5DG004NtNtCsf6Ci3ytuMGw_9rumdl_lib4rule4Rule16cross_file_checks_0Ba_
FNDA:1,_RNvXNtNtNtCs8RsHhL5CoQx_8docgraph4core5rules5dg004NtB2_5DG004NtNtCsf6Ci3ytuMGw_9rumdl_lib4rule4Rule11description
FNDA:9,_RNvXNtNtNtCs8RsHhL5CoQx_8docgraph4core5rules5dg004NtB2_5DG004NtNtCsf6Ci3ytuMGw_9rumdl_lib4rule4Rule16cross_file_check
FNDA:18,_RNvXNtNtNtCs8RsHhL5CoQx_8docgraph4core5rules5dg004NtB2_5DG004NtNtCsf6Ci3ytuMGw_9rumdl_lib4rule4Rule16cross_file_scope
FNDA:0,_RNvXNtNtNtCs8RsHhL5CoQx_8docgraph4core5rules5dg004NtB2_5DG004NtNtCsf6Ci3ytuMGw_9rumdl_lib4rule4Rule3fix
FNDA:23,_RNvXNtNtNtCs8RsHhL5CoQx_8docgraph4core5rules5dg004NtB2_5DG004NtNtCsf6Ci3ytuMGw_9rumdl_lib4rule4Rule4name
FNDA:9,_RNvXNtNtNtCs8RsHhL5CoQx_8docgraph4core5rules5dg004NtB2_5DG004NtNtCsf6Ci3ytuMGw_9rumdl_lib4rule4Rule5check
FNDA:0,_RNvXNtNtNtCs8RsHhL5CoQx_8docgraph4core5rules5dg004NtB2_5DG004NtNtCsf6Ci3ytuMGw_9rumdl_lib4rule4Rule6as_any
FNDA:4,_RNCNCNvXNtNtNtCs45lXedhizVw_8docgraph4core5rules5dg004NtB6_5DG004NtNtCsf6Ci3ytuMGw_9rumdl_lib4rule4Rule16cross_file_checks_00Bc_
FNDA:4,_RNCNvXNtNtNtCs45lXedhizVw_8docgraph4core5rules5dg004NtB4_5DG004NtNtCsf6Ci3ytuMGw_9rumdl_lib4rule4Rule16cross_file_check0Ba_
FNDA:2,_RNCNvXNtNtNtCs45lXedhizVw_8docgraph4core5rules5dg004NtB4_5DG004NtNtCsf6Ci3ytuMGw_9rumdl_lib4rule4Rule16cross_file_checks0_0Ba_
FNDA:2,_RNCNvXNtNtNtCs45lXedhizVw_8docgraph4core5rules5dg004NtB4_5DG004NtNtCsf6Ci3ytuMGw_9rumdl_lib4rule4Rule16cross_file_checks1_0Ba_
FNDA:2,_RNCNvXNtNtNtCs45lXedhizVw_8docgraph4core5rules5dg004NtB4_5DG004NtNtCsf6Ci3ytuMGw_9rumdl_lib4rule4Rule16cross_file_checks_0Ba_
FNDA:4,_RNvNtNtNtNtCs45lXedhizVw_8docgraph4core5rules5dg0045tests13index_content
FNDA:1,_RNvNtNtNtNtCs45lXedhizVw_8docgraph4core5rules5dg0045testss_20test_dg004_link_text
FNDA:1,_RNvNtNtNtNtCs45lXedhizVw_8docgraph4core5rules5dg0045testss_24test_dg004_cleaned_title
FNDA:0,_RNvXNtNtNtCs45lXedhizVw_8docgraph4core5rules5dg004NtB2_5DG004NtNtCsf6Ci3ytuMGw_9rumdl_lib4rule4Rule11description
FNDA:6,_RNvXNtNtNtCs45lXedhizVw_8docgraph4core5rules5dg004NtB2_5DG004NtNtCsf6Ci3ytuMGw_9rumdl_lib4rule4Rule16cross_file_check
FNDA:12,_RNvXNtNtNtCs45lXedhizVw_8docgraph4core5rules5dg004NtB2_5DG004NtNtCsf6Ci3ytuMGw_9rumdl_lib4rule4Rule16cross_file_scope
FNDA:0,_RNvXNtNtNtCs45lXedhizVw_8docgraph4core5rules5dg004NtB2_5DG004NtNtCsf6Ci3ytuMGw_9rumdl_lib4rule4Rule3fix
FNDA:156,_RNvXNtNtNtCs45lXedhizVw_8docgraph4core5rules5dg004NtB2_5DG004NtNtCsf6Ci3ytuMGw_9rumdl_lib4rule4Rule4name
FNDA:10,_RNvXNtNtNtCs45lXedhizVw_8docgraph4core5rules5dg004NtB2_5DG004NtNtCsf6Ci3ytuMGw_9rumdl_lib4rule4Rule5check
FNDA:0,_RNvXNtNtNtCs45lXedhizVw_8docgraph4core5rules5dg004NtB2_5DG004NtNtCsf6Ci3ytuMGw_9rumdl_lib4rule4Rule6as_any
FNF:15
FNH:13
DA:13,179
DA:14,179
DA:15,179
DA:17,1
DA:18,1
DA:19,1
DA:21,19
DA:22,19
DA:23,19
DA:25,30
DA:26,30
DA:27,30
DA:29,15
DA:30,15
DA:31,15
DA:32,15
DA:33,15
DA:34,15
DA:35,15
DA:37,15
DA:38,15
DA:39,0
DA:43,15
DA:44,21
DA:45,21
DA:46,21
DA:47,37
DA:48,16
DA:49,14
DA:50,14
DA:52,0
DA:57,15
DA:60,15
DA:61,29
DA:62,15
DA:64,15
DA:65,2
DA:66,4
DA:67,2
DA:68,2
DA:69,2
DA:70,2
DA:72,15
DA:73,3
DA:74,3
DA:75,3
DA:77,3
DA:79,2
DA:81,2
DA:82,2
DA:83,2
DA:84,2
DA:86,2
DA:87,2
DA:88,2
DA:89,2
DA:90,2
DA:91,2
DA:92,2
DA:93,2
DA:94,2
DA:95,2
DA:96,2
DA:97,2
DA:98,2
DA:99,2
DA:100,2
DA:101,2
DA:102,2
DA:103,2
DA:104,2
DA:105,2
DA:107,2
DA:108,0
DA:110,2
DA:113,2
DA:114,1
DA:115,1
DA:116,1
DA:117,1
DA:118,1
DA:119,1
DA:120,1
DA:121,1
DA:122,1
DA:123,1
DA:124,1
DA:125,1
DA:126,1
DA:127,1
DA:128,1
DA:129,1
DA:130,1
DA:131,1
DA:132,0
DA:135,15
DA:136,15
DA:138,0
DA:139,0
DA:140,0
DA:142,0
DA:143,0
DA:144,0
DA:152,4
DA:153,4
DA:154,4
DA:155,4
DA:156,4
DA:157,4
DA:158,4
DA:159,4
DA:160,4
DA:161,4
DA:162,4
DA:163,4
DA:164,4
DA:167,1
DA:169,1
DA:171,1
DA:172,1
DA:175,1
DA:176,1
DA:179,1
DA:180,1
DA:183,1
DA:184,1
DA:186,1
DA:187,1
DA:188,1
DA:190,1
DA:191,1
DA:194,1
DA:195,1
DA:196,1
DA:197,1
DA:198,1
DA:200,1
DA:203,1
DA:205,1
DA:206,1
DA:209,1
DA:210,1
DA:212,1
DA:213,1
DA:214,1
DA:216,1
DA:217,1
DA:219,1
DA:220,1
DA:221,1
DA:223,1
DA:224,1
DA:225,1
DA:226,1
BRF:0
BRH:0
LF:159
LH:149
end_of_record
SF:/Users/sonesuke/Desktop/docgraph/src/core/rules/dg005.rs
FN:6,_RNvNtNtNtCs8RsHhL5CoQx_8docgraph4core5rules5dg00523check_strict_node_types
FN:6,_RNvNtNtNtCs45lXedhizVw_8docgraph4core5rules5dg00523check_strict_node_types
FN:49,_RNvNtNtNtNtCs45lXedhizVw_8docgraph4core5rules5dg0055tests12create_block
FN:90,_RNvNtNtNtNtCs45lXedhizVw_8docgraph4core5rules5dg0055testss_19test_dg005_disabled
FN:76,_RNvNtNtNtNtCs45lXedhizVw_8docgraph4core5rules5dg0055testss_23test_dg005_known_prefix
FN:61,_RNvNtNtNtNtCs45lXedhizVw_8docgraph4core5rules5dg0055testss_25test_dg005_unknown_prefix
FNDA:11,_RNvNtNtNtCs8RsHhL5CoQx_8docgraph4core5rules5dg00523check_strict_node_types
FNDA:9,_RNvNtNtNtCs45lXedhizVw_8docgraph4core5rules5dg00523check_strict_node_types
FNDA:3,_RNvNtNtNtNtCs45lXedhizVw_8docgraph4core5rules5dg0055tests12create_block
FNDA:1,_RNvNtNtNtNtCs45lXedhizVw_8docgraph4core5rules5dg0055testss_19test_dg005_disabled
FNDA:1,_RNvNtNtNtNtCs45lXedhizVw_8docgraph4core5rules5dg0055testss_23test_dg005_known_prefix
FNDA:1,_RNvNtNtNtNtCs45lXedhizVw_8docgraph4core5rules5dg0055testss_25test_dg005_unknown_prefix
FNF:5
FNH:5
DA:6,20
DA:7,20
DA:9,20
DA:10,14
DA:11,6
DA:13,11
DA:14,5
DA:15,5
DA:16,5
DA:18,5
DA:19,2
DA:20,2
DA:21,2
DA:22,2
DA:23,2
DA:24,2
DA:25,2
DA:26,2
DA:27,2
DA:28,2
DA:29,2
DA:30,2
DA:31,2
DA:32,2
DA:33,2
DA:34,2
DA:35,2
DA:36,3
DA:39,6
DA:40,20
DA:49,3
DA:50,3
DA:51,3
DA:52,3
DA:53,3
DA:54,3
DA:55,3
DA:56,3
DA:57,3
DA:58,3
DA:61,1
DA:62,1
DA:63,1
DA:64,1
DA:65,1
DA:66,1
DA:68,1
DA:69,1
DA:71,1
DA:72,1
DA:73,1
DA:76,1
DA:77,1
DA:78,1
DA:79,1
DA:80,1
DA:81,1
DA:83,1
DA:84,1
DA:86,1
DA:87,1
DA:90,1
DA:91,1
DA:92,1
DA:94,1
DA:95,1
DA:97,1
DA:98,1
BRF:0
BRH:0
LF:68
LH:68
end_of_record
SF:/Users/sonesuke/Desktop/docgraph/src/core/rules/dg006.rs
FN:7,_RNvNtNtNtCs8RsHhL5CoQx_8docgraph4core5rules5dg00622check_strict_relations
FN:35,_RNCNvNtNtNtCs8RsHhL5CoQx_8docgraph4core5rules5dg00622check_strict_relations0B9_
FN:67,_RNCNvNtNtNtCs8RsHhL5CoQx_8docgraph4core5rules5dg00622check_strict_relationss_0B9_
FN:143,_RNvNtNtNtNtCs45lXedhizVw_8docgraph4core5rules5dg0065tests12create_block
FN:211,_RNvNtNtNtNtCs45lXedhizVw_8docgraph4core5rules5dg0065testss_23test_dg006_min_incoming
FN:188,_RNvNtNtNtNtCs45lXedhizVw_8docgraph4core5rules5dg0065testss_33test_dg006_strict_relations_valid
FN:164,_RNvNtNtNtNtCs45lXedhizVw_8docgraph4core5rules5dg0065testss_35test_dg006_strict_relations_invalid
FN:247,_RNvNtNtNtNtCs45lXedhizVw_8docgraph4core5rules5dg0065testss_37test_dg006_invalid_direction_and_desc
FN:7,_RNvNtNtNtCs45lXedhizVw_8docgraph4core5rules5dg00622check_strict_relations
FN:35,_RNCNvNtNtNtCs45lXedhizVw_8docgraph4core5rules5dg00622check_strict_relations0B9_
FN:67,_RNCNvNtNtNtCs45lXedhizVw_8docgraph4core5rules5dg00622check_strict_relationss_0B9_
FN:153,_RNCNvNtNtNtNtCs45lXedhizVw_8docgraph4core5rules5dg0065tests12create_block0Bb_
FNDA:11,_RNvNtNtNtCs8RsHhL5CoQx_8docgraph4core5rules5dg00622check_strict_relations
FNDA:0,_RNCNvNtNtNtCs8RsHhL5CoQx_8docgraph4core5rules5dg00622check_strict_relations0B9_
FNDA:0,_RNCNvNtNtNtCs8RsHhL5CoQx_8docgraph4core5rules5dg00622check_strict_relationss_0B9_
FNDA:6,_RNvNtNtNtNtCs45lXedhizVw_8docgraph4core5rules5dg0065tests12create_block
FNDA:1,_RNvNtNtNtNtCs45lXedhizVw_8docgraph4core5rules5dg0065testss_23test_dg006_min_incoming
FNDA:1,_RNvNtNtNtNtCs45lXedhizVw_8docgraph4core5rules5dg0065testss_33test_dg006_strict_relations_valid
FNDA:1,_RNvNtNtNtNtCs45lXedhizVw_8docgraph4core5rules5dg0065testss_35test_dg006_strict_relations_invalid
FNDA:1,_RNvNtNtNtNtCs45lXedhizVw_8docgraph4core5rules5dg0065testss_37test_dg006_invalid_direction_and_desc
FNDA:11,_RNvNtNtNtCs45lXedhizVw_8docgraph4core5rules5dg00622check_strict_relations
FNDA:1,_RNCNvNtNtNtCs45lXedhizVw_8docgraph4core5rules5dg00622check_strict_relations0B9_
FNDA:0,_RNCNvNtNtNtCs45lXedhizVw_8docgraph4core5rules5dg00622check_strict_relationss_0B9_
FNDA:3,_RNCNvNtNtNtNtCs45lXedhizVw_8docgraph4core5rules5dg0065tests12create_block0Bb_
FNF:9
FNH:8
DA:7,22
DA:8,22
DA:11,22
DA:13,41
DA:14,19
DA:15,22
DA:16,3
DA:17,3
DA:18,3
DA:19,3
DA:20,3
DA:23,41
DA:24,19
DA:26,19
DA:27,5
DA:29,11
DA:30,6
DA:31,6
DA:32,2
DA:34,2
DA:35,2
DA:36,2
DA:37,1
DA:38,1
DA:41,1
DA:42,0
DA:43,1
DA:44,1
DA:45,1
DA:46,1
DA:47,1
DA:48,1
DA:49,1
DA:50,1
DA:51,1
DA:52,1
DA:53,1
DA:54,1
DA:55,1
DA:56,1
DA:57,0
DA:59,4
DA:60,3
DA:63,3
DA:64,1
DA:65,1
DA:66,1
DA:67,1
DA:68,0
DA:70,0
DA:71,0
DA:72,1
DA:74,1
DA:75,1
DA:76,1
DA:79,1
DA:80,1
DA:81,1
DA:82,1
DA:83,1
DA:84,1
DA:85,1
DA:86,1
DA:87,1
DA:88,1
DA:89,1
DA:90,1
DA:91,1
DA:92,1
DA:93,1
DA:94,0
DA:95,2
DA:97,1
DA:102,5
DA:103,4
DA:104,2
DA:107,2
DA:108,0
DA:109,2
DA:111,2
DA:112,1
DA:113,1
DA:114,1
DA:115,1
DA:116,1
DA:117,1
DA:118,1
DA:119,1
DA:120,1
DA:121,1
DA:122,1
DA:123,1
DA:124,1
DA:125,1
DA:126,1
DA:127,1
DA:129,3
DA:130,14
DA:133,22
DA:134,22
DA:143,6
DA:145,6
DA:146,6
DA:147,6
DA:150,6
DA:151,6
DA:152,6
DA:153,3
DA:154,3
DA:158,3
DA:159,6
DA:161,6
DA:164,1
DA:165,1
DA:166,1
DA:168,1
DA:169,1
DA:170,1
DA:171,1
DA:172,1
DA:173,1
DA:174,1
DA:175,1
DA:177,1
DA:180,1
DA:181,1
DA:183,1
DA:184,1
DA:185,1
DA:188,1
DA:189,1
DA:190,1
DA:192,1
DA:193,1
DA:194,1
DA:195,1
DA:196,1
DA:197,1
DA:198,1
DA:199,1
DA:201,1
DA:204,1
DA:205,1
DA:207,1
DA:208,1
DA:211,1
DA:212,1
DA:213,1
DA:215,1
DA:216,1
DA:217,1
DA:218,1
DA:219,1
DA:220,1
DA:221,1
DA:222,1
DA:225,1
DA:228,1
DA:229,1
DA:230,1
DA:231,1
DA:232,1
DA:233,1
DA:234,1
DA:238,1
DA:239,1
DA:240,1
DA:242,1
DA:243,1
DA:244,1
DA:247,1
DA:248,1
DA:249,1
DA:252,1
DA:253,1
DA:254,1
DA:255,1
DA:256,1
DA:257,1
DA:258,1
DA:261,1
DA:262,1
DA:263,1
DA:264,1
DA:265,1
DA:266,1
DA:267,1
DA:269,1
DA:272,1
DA:273,1
DA:277,1
DA:278,1
DA:279,1
BRF:0
BRH:0
LF:195
LH:187
end_of_record
SF:/Users/sonesuke/Desktop/docgraph/src/core/walk.rs
FN:5,_RNvNtNtCs8RsHhL5CoQx_8docgraph4core4walk19find_markdown_files
FN:30,_RNCNvNtNtCs8RsHhL5CoQx_8docgraph4core4walk19find_markdown_files0B7_
FN:35,_RNCNvNtNtCs8RsHhL5CoQx_8docgraph4core4walk19find_markdown_filess_0B7_
FN:30,_RNCNvNtNtCs45lXedhizVw_8docgraph4core4walk19find_markdown_files0B7_
FN:35,_RNCNvNtNtCs45lXedhizVw_8docgraph4core4walk19find_markdown_filess_0B7_
FN:74,_RNCNvNtNtNtCs45lXedhizVw_8docgraph4core4walk5testss_24test_find_markdown_files0B9_
FN:5,_RNvNtNtCs45lXedhizVw_8docgraph4core4walk19find_markdown_files
FN:60,_RNvNtNtNtCs45lXedhizVw_8docgraph4core4walk5testss_24test_find_markdown_files
FN:80,_RNvNtNtNtCs45lXedhizVw_8docgraph4core4walk5testss_31test_find_markdown_files_ignore
FNDA:36,_RNvNtNtCs8RsHhL5CoQx_8docgraph4core4walk19find_markdown_files
FNDA:103,_RNCNvNtNtCs8RsHhL5CoQx_8docgraph4core4walk19find_markdown_files0B7_
FNDA:103,_RNCNvNtNtCs8RsHhL5CoQx_8docgraph4core4walk19find_markdown_filess_0B7_
FNDA:34,_RNCNvNtNtCs45lXedhizVw_8docgraph4core4walk19find_markdown_files0B7_
FNDA:34,_RNCNvNtNtCs45lXedhizVw_8docgraph4core4walk19find_markdown_filess_0B7_
FNDA:2,_RNCNvNtNtNtCs45lXedhizVw_8docgraph4core4walk5testss_24test_find_markdown_files0B9_
FNDA:15,_RNvNtNtCs45lXedhizVw_8docgraph4core4walk19find_markdown_files
FNDA:1,_RNvNtNtNtCs45lXedhizVw_8docgraph4core4walk5testss_24test_find_markdown_files
FNDA:1,_RNvNtNtNtCs45lXedhizVw_8docgraph4core4walk5testss_31test_find_markdown_files_ignore
FNF:6
FNH:6
DA:5,51
DA:6,51
DA:9,51
DA:10,66
DA:11,15
DA:12,15
DA:13,51
DA:15,51
DA:16,51
DA:17,51
DA:18,51
DA:20,190
DA:21,139
DA:22,137
DA:23,137
DA:30,137
DA:33,137
DA:34,137
DA:35,137
DA:37,1
DA:38,136
DA:40,136
DA:41,86
DA:42,86
DA:43,56
DA:44,56
DA:45,80
DA:47,2
DA:50,51
DA:51,51
DA:60,1
DA:61,1
DA:62,1
DA:63,1
DA:64,1
DA:65,1
DA:66,1
DA:68,1
DA:69,1
DA:70,1
DA:72,1
DA:73,1
DA:74,2
DA:75,1
DA:76,1
DA:77,1
DA:80,1
DA:81,1
DA:82,1
DA:83,1
DA:85,1
DA:86,1
DA:88,1
DA:89,1
DA:90,1
DA:91,1
BRF:0
BRH:0
LF:59
LH:58
end_of_record
SF:/Users/sonesuke/Desktop/docgraph/src/lsp/backend.rs
FN:31,_RNCNCNvMNtNtCs8RsHhL5CoQx_8docgraph3lsp7backendNtB6_7Backend8run_lint00Ba_
FN:28,_RNCNvMNtNtCs8RsHhL5CoQx_8docgraph3lsp7backendNtB4_7Backend8run_lint0B8_
FN:19,_RNvMNtNtCs8RsHhL5CoQx_8docgraph3lsp7backendNtB2_7Backend3new
FN:28,_RNvMNtNtCs8RsHhL5CoQx_8docgraph3lsp7backendNtB2_7Backend8run_lint
FN:163,_RNvXs_NtNtCs8RsHhL5CoQx_8docgraph3lsp7backendNtB4_7BackendNtCsc25v5jc05yV_9tower_lsp14LanguageServer10completion
FN:134,_RNvXs_NtNtCs8RsHhL5CoQx_8docgraph3lsp7backendNtB4_7BackendNtCsc25v5jc05yV_9tower_lsp14LanguageServer10did_change
FN:82,_RNvXs_NtNtCs8RsHhL5CoQx_8docgraph3lsp7backendNtB4_7BackendNtCsc25v5jc05yV_9tower_lsp14LanguageServer10initialize
FN:168,_RNvXs_NtNtCs8RsHhL5CoQx_8docgraph3lsp7backendNtB4_7BackendNtCsc25v5jc05yV_9tower_lsp14LanguageServer10references
FN:119,_RNvXs_NtNtCs8RsHhL5CoQx_8docgraph3lsp7backendNtB4_7BackendNtCsc25v5jc05yV_9tower_lsp14LanguageServer11initialized
FN:190,_RNvXs_NtNtCs8RsHhL5CoQx_8docgraph3lsp7backendNtB4_7BackendNtCsc25v5jc05yV_9tower_lsp14LanguageServer14incoming_calls
FN:197,_RNvXs_NtNtCs8RsHhL5CoQx_8docgraph3lsp7backendNtB4_7BackendNtCsc25v5jc05yV_9tower_lsp14LanguageServer14outgoing_calls
FN:151,_RNvXs_NtNtCs8RsHhL5CoQx_8docgraph3lsp7backendNtB4_7BackendNtCsc25v5jc05yV_9tower_lsp14LanguageServer15goto_definition
FN:183,_RNvXs_NtNtCs8RsHhL5CoQx_8docgraph3lsp7backendNtB4_7BackendNtCsc25v5jc05yV_9tower_lsp14LanguageServer22prepare_call_hierarchy
FN:157,_RNvXs_NtNtCs8RsHhL5CoQx_8docgraph3lsp7backendNtB4_7BackendNtCsc25v5jc05yV_9tower_lsp14LanguageServer5hover
FN:174,_RNvXs_NtNtCs8RsHhL5CoQx_8docgraph3lsp7backendNtB4_7BackendNtCsc25v5jc05yV_9tower_lsp14LanguageServer6rename
FN:130,_RNvXs_NtNtCs8RsHhL5CoQx_8docgraph3lsp7backendNtB4_7BackendNtCsc25v5jc05yV_9tower_lsp14LanguageServer8did_open
FN:138,_RNvXs_NtNtCs8RsHhL5CoQx_8docgraph3lsp7backendNtB4_7BackendNtCsc25v5jc05yV_9tower_lsp14LanguageServer8did_save
FN:126,_RNvXs_NtNtCs8RsHhL5CoQx_8docgraph3lsp7backendNtB4_7BackendNtCsc25v5jc05yV_9tower_lsp14LanguageServer8shutdown
FN:142,_RNvXs_NtNtCs8RsHhL5CoQx_8docgraph3lsp7backendNtB4_7BackendNtCsc25v5jc05yV_9tower_lsp14LanguageServer9did_close
FN:19,_RNvMNtNtCs45lXedhizVw_8docgraph3lsp7backendNtB2_7Backend3new
FN:28,_RNvMNtNtCs45lXedhizVw_8docgraph3lsp7backendNtB2_7Backend8run_lint
FN:163,_RNvXs_NtNtCs45lXedhizVw_8docgraph3lsp7backendNtB4_7BackendNtCsc25v5jc05yV_9tower_lsp14LanguageServer10completion
FN:134,_RNvXs_NtNtCs45lXedhizVw_8docgraph3lsp7backendNtB4_7BackendNtCsc25v5jc05yV_9tower_lsp14LanguageServer10did_change
FN:82,_RNvXs_NtNtCs45lXedhizVw_8docgraph3lsp7backendNtB4_7BackendNtCsc25v5jc05yV_9tower_lsp14LanguageServer10initialize
FN:168,_RNvXs_NtNtCs45lXedhizVw_8docgraph3lsp7backendNtB4_7BackendNtCsc25v5jc05yV_9tower_lsp14LanguageServer10references
FN:119,_RNvXs_NtNtCs45lXedhizVw_8docgraph3lsp7backendNtB4_7BackendNtCsc25v5jc05yV_9tower_lsp14LanguageServer11initialized
FN:190,_RNvXs_NtNtCs45lXedhizVw_8docgraph3lsp7backendNtB4_7BackendNtCsc25v5jc05yV_9tower_lsp14LanguageServer14incoming_calls
FN:197,_RNvXs_NtNtCs45lXedhizVw_8docgraph3lsp7backendNtB4_7BackendNtCsc25v5jc05yV_9tower_lsp14LanguageServer14outgoing_calls
FN:151,_RNvXs_NtNtCs45lXedhizVw_8docgraph3lsp7backendNtB4_7BackendNtCsc25v5jc05yV_9tower_lsp14LanguageServer15goto_definition
FN:183,_RNvXs_NtNtCs45lXedhizVw_8docgraph3lsp7backendNtB4_7BackendNtCsc25v5jc05yV_9tower_lsp14LanguageServer22prepare_call_hierarchy
FN:157,_RNvXs_NtNtCs45lXedhizVw_8docgraph3lsp7backendNtB4_7BackendNtCsc25v5jc05yV_9tower_lsp14LanguageServer5hover
FN:174,_RNvXs_NtNtCs45lXedhizVw_8docgraph3lsp7backendNtB4_7BackendNtCsc25v5jc05yV_9tower_lsp14LanguageServer6rename
FN:130,_RNvXs_NtNtCs45lXedhizVw_8docgraph3lsp7backendNtB4_7BackendNtCsc25v5jc05yV_9tower_lsp14LanguageServer8did_open
FN:138,_RNvXs_NtNtCs45lXedhizVw_8docgraph3lsp7backendNtB4_7BackendNtCsc25v5jc05yV_9tower_lsp14LanguageServer8did_save
FN:126,_RNvXs_NtNtCs45lXedhizVw_8docgraph3lsp7backendNtB4_7BackendNtCsc25v5jc05yV_9tower_lsp14LanguageServer8shutdown
FN:142,_RNvXs_NtNtCs45lXedhizVw_8docgraph3lsp7backendNtB4_7BackendNtCsc25v5jc05yV_9tower_lsp14LanguageServer9did_close
FN:31,_RNCNCNvMNtNtCs45lXedhizVw_8docgraph3lsp7backendNtB6_7Backend8run_lint00Ba_
FN:28,_RNCNvMNtNtCs45lXedhizVw_8docgraph3lsp7backendNtB4_7Backend8run_lint0B8_
FNDA:0,_RNCNCNvMNtNtCs8RsHhL5CoQx_8docgraph3lsp7backendNtB6_7Backend8run_lint00Ba_
FNDA:0,_RNCNvMNtNtCs8RsHhL5CoQx_8docgraph3lsp7backendNtB4_7Backend8run_lint0B8_
FNDA:0,_RNvMNtNtCs8RsHhL5CoQx_8docgraph3lsp7backendNtB2_7Backend3new
FNDA:0,_RNvMNtNtCs8RsHhL5CoQx_8docgraph3lsp7backendNtB2_7Backend8run_lint
FNDA:0,_RNvXs_NtNtCs8RsHhL5CoQx_8docgraph3lsp7backendNtB4_7BackendNtCsc25v5jc05yV_9tower_lsp14LanguageServer10completion
FNDA:0,_RNvXs_NtNtCs8RsHhL5CoQx_8docgraph3lsp7backendNtB4_7BackendNtCsc25v5jc05yV_9tower_lsp14LanguageServer10did_change
FNDA:0,_RNvXs_NtNtCs8RsHhL5CoQx_8docgraph3lsp7backendNtB4_7BackendNtCsc25v5jc05yV_9tower_lsp14LanguageServer10initialize
FNDA:0,_RNvXs_NtNtCs8RsHhL5CoQx_8docgraph3lsp7backendNtB4_7BackendNtCsc25v5jc05yV_9tower_lsp14LanguageServer10references
FNDA:0,_RNvXs_NtNtCs8RsHhL5CoQx_8docgraph3lsp7backendNtB4_7BackendNtCsc25v5jc05yV_9tower_lsp14LanguageServer11initialized
FNDA:0,_RNvXs_NtNtCs8RsHhL5CoQx_8docgraph3lsp7backendNtB4_7BackendNtCsc25v5jc05yV_9tower_lsp14LanguageServer14incoming_calls
FNDA:0,_RNvXs_NtNtCs8RsHhL5CoQx_8docgraph3lsp7backendNtB4_7BackendNtCsc25v5jc05yV_9tower_lsp14LanguageServer14outgoing_calls
FNDA:0,_RNvXs_NtNtCs8RsHhL5CoQx_8docgraph3lsp7backendNtB4_7BackendNtCsc25v5jc05yV_9tower_lsp14LanguageServer15goto_definition
FNDA:0,_RNvXs_NtNtCs8RsHhL5CoQx_8docgraph3lsp7backendNtB4_7BackendNtCsc25v5jc05yV_9tower_lsp14LanguageServer22prepare_call_hierarchy
FNDA:0,_RNvXs_NtNtCs8RsHhL5CoQx_8docgraph3lsp7backendNtB4_7BackendNtCsc25v5jc05yV_9tower_lsp14LanguageServer5hover
FNDA:0,_RNvXs_NtNtCs8RsHhL5CoQx_8docgraph3lsp7backendNtB4_7BackendNtCsc25v5jc05yV_9tower_lsp14LanguageServer6rename
FNDA:0,_RNvXs_NtNtCs8RsHhL5CoQx_8docgraph3lsp7backendNtB4_7BackendNtCsc25v5jc05yV_9tower_lsp14LanguageServer8did_open
FNDA:0,_RNvXs_NtNtCs8RsHhL5CoQx_8docgraph3lsp7backendNtB4_7BackendNtCsc25v5jc05yV_9tower_lsp14LanguageServer8did_save
FNDA:0,_RNvXs_NtNtCs8RsHhL5CoQx_8docgraph3lsp7backendNtB4_7BackendNtCsc25v5jc05yV_9tower_lsp14LanguageServer8shutdown
FNDA:0,_RNvXs_NtNtCs8RsHhL5CoQx_8docgraph3lsp7backendNtB4_7BackendNtCsc25v5jc05yV_9tower_lsp14LanguageServer9did_close
FNDA:0,_RNvMNtNtCs45lXedhizVw_8docgraph3lsp7backendNtB2_7Backend3new
FNDA:0,_RNvMNtNtCs45lXedhizVw_8docgraph3lsp7backendNtB2_7Backend8run_lint
FNDA:0,_RNvXs_NtNtCs45lXedhizVw_8docgraph3lsp7backendNtB4_7BackendNtCsc25v5jc05yV_9tower_lsp14LanguageServer10completion
FNDA:0,_RNvXs_NtNtCs45lXedhizVw_8docgraph3lsp7backendNtB4_7BackendNtCsc25v5jc05yV_9tower_lsp14LanguageServer10did_change
FNDA:0,_RNvXs_NtNtCs45lXedhizVw_8docgraph3lsp7backendNtB4_7BackendNtCsc25v5jc05yV_9tower_lsp14LanguageServer10initialize
FNDA:0,_RNvXs_NtNtCs45lXedhizVw_8docgraph3lsp7backendNtB4_7BackendNtCsc25v5jc05yV_9tower_lsp14LanguageServer10references
FNDA:0,_RNvXs_NtNtCs45lXedhizVw_8docgraph3lsp7backendNtB4_7BackendNtCsc25v5jc05yV_9tower_lsp14LanguageServer11initialized
FNDA:0,_RNvXs_NtNtCs45lXedhizVw_8docgraph3lsp7backendNtB4_7BackendNtCsc25v5jc05yV_9tower_lsp14LanguageServer14incoming_calls
FNDA:0,_RNvXs_NtNtCs45lXedhizVw_8docgraph3lsp7backendNtB4_7BackendNtCsc25v5jc05yV_9tower_lsp14LanguageServer14outgoing_calls
FNDA:0,_RNvXs_NtNtCs45lXedhizVw_8docgraph3lsp7backendNtB4_7BackendNtCsc25v5jc05yV_9tower_lsp14LanguageServer15goto_definition
FNDA:0,_RNvXs_NtNtCs45lXedhizVw_8docgraph3lsp7backendNtB4_7BackendNtCsc25v5jc05yV_9tower_lsp14LanguageServer22prepare_call_hierarchy
FNDA:0,_RNvXs_NtNtCs45lXedhizVw_8docgraph3lsp7backendNtB4_7BackendNtCsc25v5jc05yV_9tower_lsp14LanguageServer5hover
FNDA:0,_RNvXs_NtNtCs45lXedhizVw_8docgraph3lsp7backendNtB4_7BackendNtCsc25v5jc05yV_9tower_lsp14LanguageServer6rename
FNDA:0,_RNvXs_NtNtCs45lXedhizVw_8docgraph3lsp7backendNtB4_7BackendNtCsc25v5jc05yV_9tower_lsp14LanguageServer8did_open
FNDA:0,_RNvXs_NtNtCs45lXedhizVw_8docgraph3lsp7backendNtB4_7BackendNtCsc25v5jc05yV_9tower_lsp14LanguageServer8did_save
FNDA:0,_RNvXs_NtNtCs45lXedhizVw_8docgraph3lsp7backendNtB4_7BackendNtCsc25v5jc05yV_9tower_lsp14LanguageServer8shutdown
FNDA:0,_RNvXs_NtNtCs45lXedhizVw_8docgraph3lsp7backendNtB4_7BackendNtCsc25v5jc05yV_9tower_lsp14LanguageServer9did_close
FNDA:0,_RNCNCNvMNtNtCs45lXedhizVw_8docgraph3lsp7backendNtB6_7Backend8run_lint00Ba_
FNDA:0,_RNCNvMNtNtCs45lXedhizVw_8docgraph3lsp7backendNtB4_7Backend8run_lint0B8_
FNF:19
FNH:0
DA:19,0
DA:20,0
DA:21,0
DA:22,0
DA:23,0
DA:24,0
DA:25,0
DA:26,0
DA:28,0
DA:29,0
DA:30,0
DA:31,0
DA:32,0
DA:35,0
DA:37,0
DA:38,0
DA:39,0
DA:40,0
DA:44,0
DA:45,0
DA:47,0
DA:48,0
DA:49,0
DA:50,0
DA:51,0
DA:52,0
DA:53,0
DA:54,0
DA:55,0
DA:56,0
DA:57,0
DA:58,0
DA:59,0
DA:60,0
DA:61,0
DA:63,0
DA:64,0
DA:65,0
DA:66,0
DA:68,0
DA:71,0
DA:72,0
DA:73,0
DA:74,0
DA:76,0
DA:77,0
DA:82,0
DA:117,0
DA:119,0
DA:124,0
DA:126,0
DA:128,0
DA:130,0
DA:132,0
DA:134,0
DA:136,0
DA:138,0
DA:140,0
DA:142,0
DA:146,0
DA:151,0
DA:155,0
DA:157,0
DA:161,0
DA:163,0
DA:166,0
DA:168,0
DA:172,0
DA:174,0
DA:178,0
DA:183,0
DA:185,0
DA:190,0
DA:192,0
DA:197,0
DA:199,0
BRF:0
BRH:0
LF:78
LH:0
end_of_record
SF:/Users/sonesuke/Desktop/docgraph/src/lsp/handlers/call_hierarchy.rs
FN:70,_RNvNtNtNtCs8RsHhL5CoQx_8docgraph3lsp8handlers14call_hierarchy14incoming_calls
FN:138,_RNvNtNtNtCs8RsHhL5CoQx_8docgraph3lsp8handlers14call_hierarchy14outgoing_calls
FN:5,_RNvNtNtNtCs8RsHhL5CoQx_8docgraph3lsp8handlers14call_hierarchy22prepare_call_hierarchy
FN:104,_RNCNCNvNtNtNtCs8RsHhL5CoQx_8docgraph3lsp8handlers14call_hierarchy14incoming_calls00Bb_
FN:151,_RNCNCNvNtNtNtCs8RsHhL5CoQx_8docgraph3lsp8handlers14call_hierarchy14outgoing_calls00Bb_
FN:175,_RNCNCNvNtNtNtCs8RsHhL5CoQx_8docgraph3lsp8handlers14call_hierarchy14outgoing_calls0s0_0Bb_
FN:167,_RNCNCNvNtNtNtCs8RsHhL5CoQx_8docgraph3lsp8handlers14call_hierarchy14outgoing_calls0s_0Bb_
FN:34,_RNCNCNvNtNtNtCs8RsHhL5CoQx_8docgraph3lsp8handlers14call_hierarchy22prepare_call_hierarchy00Bb_
FN:38,_RNCNCNvNtNtNtCs8RsHhL5CoQx_8docgraph3lsp8handlers14call_hierarchy22prepare_call_hierarchy0s_0Bb_
FN:73,_RNCNvNtNtNtCs8RsHhL5CoQx_8docgraph3lsp8handlers14call_hierarchy14incoming_calls0B9_
FN:141,_RNCNvNtNtNtCs8RsHhL5CoQx_8docgraph3lsp8handlers14call_hierarchy14outgoing_calls0B9_
FN:8,_RNCNvNtNtNtCs8RsHhL5CoQx_8docgraph3lsp8handlers14call_hierarchy22prepare_call_hierarchy0B9_
FN:70,_RNvNtNtNtCs45lXedhizVw_8docgraph3lsp8handlers14call_hierarchy14incoming_calls
FN:138,_RNvNtNtNtCs45lXedhizVw_8docgraph3lsp8handlers14call_hierarchy14outgoing_calls
FN:5,_RNvNtNtNtCs45lXedhizVw_8docgraph3lsp8handlers14call_hierarchy22prepare_call_hierarchy
FN:104,_RNCNCNvNtNtNtCs45lXedhizVw_8docgraph3lsp8handlers14call_hierarchy14incoming_calls00Bb_
FN:151,_RNCNCNvNtNtNtCs45lXedhizVw_8docgraph3lsp8handlers14call_hierarchy14outgoing_calls00Bb_
FN:175,_RNCNCNvNtNtNtCs45lXedhizVw_8docgraph3lsp8handlers14call_hierarchy14outgoing_calls0s0_0Bb_
FN:167,_RNCNCNvNtNtNtCs45lXedhizVw_8docgraph3lsp8handlers14call_hierarchy14outgoing_calls0s_0Bb_
FN:34,_RNCNCNvNtNtNtCs45lXedhizVw_8docgraph3lsp8handlers14call_hierarchy22prepare_call_hierarchy00Bb_
FN:38,_RNCNCNvNtNtNtCs45lXedhizVw_8docgraph3lsp8handlers14call_hierarchy22prepare_call_hierarchy0s_0Bb_
FN:73,_RNCNvNtNtNtCs45lXedhizVw_8docgraph3lsp8handlers14call_hierarchy14incoming_calls0B9_
FN:141,_RNCNvNtNtNtCs45lXedhizVw_8docgraph3lsp8handlers14call_hierarchy14outgoing_calls0B9_
FN:8,_RNCNvNtNtNtCs45lXedhizVw_8docgraph3lsp8handlers14call_hierarchy22prepare_call_hierarchy0B9_
FNDA:0,_RNvNtNtNtCs8RsHhL5CoQx_8docgraph3lsp8handlers14call_hierarchy14incoming_calls
FNDA:0,_RNvNtNtNtCs8RsHhL5CoQx_8docgraph3lsp8handlers14call_hierarchy14outgoing_calls
FNDA:0,_RNvNtNtNtCs8RsHhL5CoQx_8docgraph3lsp8handlers14call_hierarchy22prepare_call_hierarchy
FNDA:0,_RNCNCNvNtNtNtCs8RsHhL5CoQx_8docgraph3lsp8handlers14call_hierarchy14incoming_calls00Bb_
FNDA:0,_RNCNCNvNtNtNtCs8RsHhL5CoQx_8docgraph3lsp8handlers14call_hierarchy14outgoing_calls00Bb_
FNDA:0,_RNCNCNvNtNtNtCs8RsHhL5CoQx_8docgraph3lsp8handlers14call_hierarchy14outgoing_calls0s0_0Bb_
FNDA:0,_RNCNCNvNtNtNtCs8RsHhL5CoQx_8docgraph3lsp8handlers14call_hierarchy14outgoing_calls0s_0Bb_
FNDA:0,_RNCNCNvNtNtNtCs8RsHhL5CoQx_8docgraph3lsp8handlers14call_hierarchy22prepare_call_hierarchy00Bb_
FNDA:0,_RNCNCNvNtNtNtCs8RsHhL5CoQx_8docgraph3lsp8handlers14call_hierarchy22prepare_call_hierarchy0s_0Bb_
FNDA:0,_RNCNvNtNtNtCs8RsHhL5CoQx_8docgraph3lsp8handlers14call_hierarchy14incoming_calls0B9_
FNDA:0,_RNCNvNtNtNtCs8RsHhL5CoQx_8docgraph3lsp8handlers14call_hierarchy14outgoing_calls0B9_
FNDA:0,_RNCNvNtNtNtCs8RsHhL5CoQx_8docgraph3lsp8handlers14call_hierarchy22prepare_call_hierarchy0B9_
FNDA:0,_RNvNtNtNtCs45lXedhizVw_8docgraph3lsp8handlers14call_hierarchy14incoming_calls
FNDA:0,_RNvNtNtNtCs45lXedhizVw_8docgraph3lsp8handlers14call_hierarchy14outgoing_calls
FNDA:0,_RNvNtNtNtCs45lXedhizVw_8docgraph3lsp8handlers14call_hierarchy22prepare_call_hierarchy
FNDA:0,_RNCNCNvNtNtNtCs45lXedhizVw_8docgraph3lsp8handlers14call_hierarchy14incoming_calls00Bb_
FNDA:0,_RNCNCNvNtNtNtCs45lXedhizVw_8docgraph3lsp8handlers14call_hierarchy14outgoing_calls00Bb_
FNDA:0,_RNCNCNvNtNtNtCs45lXedhizVw_8docgraph3lsp8handlers14call_hierarchy14outgoing_calls0s0_0Bb_
FNDA:0,_RNCNCNvNtNtNtCs45lXedhizVw_8docgraph3lsp8handlers14call_hierarchy14outgoing_calls0s_0Bb_
FNDA:0,_RNCNCNvNtNtNtCs45lXedhizVw_8docgraph3lsp8handlers14call_hierarchy22prepare_call_hierarchy00Bb_
FNDA:0,_RNCNCNvNtNtNtCs45lXedhizVw_8docgraph3lsp8handlers14call_hierarchy22prepare_call_hierarchy0s_0Bb_
FNDA:0,_RNCNvNtNtNtCs45lXedhizVw_8docgraph3lsp8handlers14call_hierarchy14incoming_calls0B9_
FNDA:0,_RNCNvNtNtNtCs45lXedhizVw_8docgraph3lsp8handlers14call_hierarchy14outgoing_calls0B9_
FNDA:0,_RNCNvNtNtNtCs45lXedhizVw_8docgraph3lsp8handlers14call_hierarchy22prepare_call_hierarchy0B9_
FNF:12
FNH:0
DA:5,0
DA:6,0
DA:7,0
DA:8,0
DA:9,0
DA:10,0
DA:11,0
DA:12,0
DA:14,0
DA:15,0
DA:16,0
DA:18,0
DA:19,0
DA:20,0
DA:21,0
DA:22,0
DA:23,0
DA:24,0
DA:25,0
DA:26,0
DA:27,0
DA:28,0
DA:30,0
DA:33,0
DA:34,0
DA:35,0
DA:37,0
DA:38,0
DA:40,0
DA:41,0
DA:42,0
DA:43,0
DA:44,0
DA:45,0
DA:46,0
DA:47,0
DA:48,0
DA:49,0
DA:50,0
DA:51,0
DA:52,0
DA:53,0
DA:54,0
DA:55,0
DA:56,0
DA:57,0
DA:58,0
DA:59,0
DA:60,0
DA:61,0
DA:62,0
DA:63,0
DA:65,0
DA:66,0
DA:67,0
DA:68,0
DA:70,0
DA:71,0
DA:72,0
DA:73,0
DA:74,0
DA:75,0
DA:76,0
DA:77,0
DA:78,0
DA:80,0
DA:81,0
DA:83,0
DA:84,0
DA:85,0
DA:86,0
DA:87,0
DA:88,0
DA:89,0
DA:90,0
DA:91,0
DA:92,0
DA:93,0
DA:94,0
DA:95,0
DA:96,0
DA:97,0
DA:99,0
DA:100,0
DA:102,0
DA:104,0
DA:106,0
DA:107,0
DA:108,0
DA:109,0
DA:110,0
DA:111,0
DA:112,0
DA:113,0
DA:114,0
DA:115,0
DA:116,0
DA:117,0
DA:118,0
DA:119,0
DA:120,0
DA:121,0
DA:122,0
DA:123,0
DA:124,0
DA:125,0
DA:126,0
DA:127,0
DA:128,0
DA:129,0
DA:131,0
DA:133,0
DA:135,0
DA:136,0
DA:138,0
DA:139,0
DA:140,0
DA:141,0
DA:142,0
DA:143,0
DA:144,0
DA:145,0
DA:146,0
DA:148,0
DA:149,0
DA:151,0
DA:152,0
DA:153,0
DA:154,0
DA:155,0
DA:156,0
DA:157,0
DA:158,0
DA:159,0
DA:160,0
DA:161,0
DA:162,0
DA:163,0
DA:164,0
DA:165,0
DA:166,0
DA:167,0
DA:168,0
DA:170,0
DA:172,0
DA:173,0
DA:174,0
DA:175,0
DA:177,0
DA:178,0
DA:179,0
DA:180,0
DA:181,0
DA:182,0
DA:183,0
DA:184,0
DA:185,0
DA:186,0
DA:187,0
DA:188,0
DA:189,0
DA:190,0
DA:191,0
DA:192,0
DA:193,0
DA:194,0
DA:195,0
DA:196,0
DA:197,0
DA:198,0
DA:199,0
DA:200,0
DA:202,0
DA:204,0
DA:206,0
DA:207,0
DA:208,0
BRF:0
BRH:0
LF:186
LH:0
end_of_record
SF:/Users/sonesuke/Desktop/docgraph/src/lsp/handlers/completion.rs
FN:11,_RNCNvNtNtNtCs8RsHhL5CoQx_8docgraph3lsp8handlers10completion10completion0B9_
FN:4,_RNvNtNtNtCs8RsHhL5CoQx_8docgraph3lsp8handlers10completion10completion
FN:4,_RNvNtNtNtCs45lXedhizVw_8docgraph3lsp8handlers10completion10completion
FN:11,_RNCNvNtNtNtCs45lXedhizVw_8docgraph3lsp8handlers10completion10completion0B9_
FN:35,_RNvNtNtNtNtCs45lXedhizVw_8docgraph3lsp8handlers10completion5testss_15test_completion
FNDA:0,_RNCNvNtNtNtCs8RsHhL5CoQx_8docgraph3lsp8handlers10completion10completion0B9_
FNDA:0,_RNvNtNtNtCs8RsHhL5CoQx_8docgraph3lsp8handlers10completion10completion
FNDA:1,_RNvNtNtNtCs45lXedhizVw_8docgraph3lsp8handlers10completion10completion
FNDA:1,_RNCNvNtNtNtCs45lXedhizVw_8docgraph3lsp8handlers10completion10completion0B9_
FNDA:1,_RNvNtNtNtNtCs45lXedhizVw_8docgraph3lsp8handlers10completion5testss_15test_completion
FNF:3
FNH:3
DA:4,1
DA:5,1
DA:6,1
DA:7,1
DA:8,1
DA:9,1
DA:10,1
DA:11,1
DA:12,1
DA:13,1
DA:14,1
DA:15,1
DA:16,1
DA:17,1
DA:18,1
DA:19,1
DA:20,1
DA:21,1
DA:22,1
DA:23,1
DA:24,1
DA:25,1
DA:26,1
DA:35,1
DA:36,1
DA:37,1
DA:38,1
DA:39,1
DA:40,1
DA:41,1
DA:43,1
DA:44,1
DA:45,1
DA:46,1
DA:47,1
DA:48,1
DA:49,1
DA:50,1
DA:51,1
DA:52,1
DA:53,1
DA:55,1
DA:56,1
DA:57,1
DA:58,1
DA:59,1
DA:61,0
DA:63,1
BRF:0
BRH:0
LF:48
LH:47
end_of_record
SF:/Users/sonesuke/Desktop/docgraph/src/lsp/handlers/definition.rs
FN:38,_RNCNvNtNtNtCs8RsHhL5CoQx_8docgraph3lsp8handlers10definition15goto_definition0B9_
FN:4,_RNvNtNtNtCs8RsHhL5CoQx_8docgraph3lsp8handlers10definition15goto_definition
FN:65,_RNvNtNtNtNtCs45lXedhizVw_8docgraph3lsp8handlers10definition5testss_20test_goto_definition
FN:4,_RNvNtNtNtCs45lXedhizVw_8docgraph3lsp8handlers10definition15goto_definition
FN:38,_RNCNvNtNtNtCs45lXedhizVw_8docgraph3lsp8handlers10definition15goto_definition0B9_
FNDA:0,_RNCNvNtNtNtCs8RsHhL5CoQx_8docgraph3lsp8handlers10definition15goto_definition0B9_
FNDA:0,_RNvNtNtNtCs8RsHhL5CoQx_8docgraph3lsp8handlers10definition15goto_definition
FNDA:1,_RNvNtNtNtNtCs45lXedhizVw_8docgraph3lsp8handlers10definition5testss_20test_goto_definition
FNDA:1,_RNvNtNtNtCs45lXedhizVw_8docgraph3lsp8handlers10definition15goto_definition
FNDA:1,_RNCNvNtNtNtCs45lXedhizVw_8docgraph3lsp8handlers10definition15goto_definition0B9_
FNF:3
FNH:3
DA:4,1
DA:5,1
DA:6,1
DA:7,1
DA:8,1
DA:9,1
DA:10,1
DA:11,1
DA:12,1
DA:14,1
DA:15,1
DA:17,2
DA:18,2
DA:19,1
DA:20,1
DA:21,1
DA:22,1
DA:23,0
DA:25,1
DA:28,1
DA:29,0
DA:30,0
DA:31,0
DA:32,0
DA:33,0
DA:35,1
DA:37,1
DA:38,1
DA:39,1
DA:41,1
DA:42,1
DA:43,1
DA:44,1
DA:45,1
DA:46,1
DA:47,1
DA:48,1
DA:49,1
DA:50,1
DA:51,1
DA:52,1
DA:53,1
DA:54,0
DA:55,0
DA:56,0
DA:57,1
DA:65,1
DA:66,1
DA:67,1
DA:68,1
DA:69,1
DA:70,1
DA:71,1
DA:72,1
DA:73,1
DA:74,1
DA:75,1
DA:76,1
DA:77,1
DA:78,1
DA:79,1
DA:80,1
DA:81,1
DA:82,1
DA:83,1
DA:84,1
DA:85,1
DA:86,1
DA:87,1
DA:88,1
DA:89,1
DA:91,1
DA:93,1
DA:94,1
DA:95,1
DA:96,1
DA:97,1
DA:98,1
DA:99,1
DA:100,1
DA:101,1
DA:102,1
DA:103,1
DA:104,1
DA:106,1
DA:107,1
DA:108,1
DA:109,1
DA:111,0
DA:113,1
BRF:0
BRH:0
LF:91
LH:81
end_of_record
SF:/Users/sonesuke/Desktop/docgraph/src/lsp/handlers/hover.rs
FN:52,_RNCNCNvNtNtNtCs8RsHhL5CoQx_8docgraph3lsp8handlers5hover5hovers_00Bb_
FN:45,_RNCNvNtNtNtCs8RsHhL5CoQx_8docgraph3lsp8handlers5hover5hover0B9_
FN:52,_RNCNvNtNtNtCs8RsHhL5CoQx_8docgraph3lsp8handlers5hover5hovers_0B9_
FN:4,_RNvNtNtNtCs8RsHhL5CoQx_8docgraph3lsp8handlers5hover5hover
FN:52,_RNCNCNvNtNtNtCs45lXedhizVw_8docgraph3lsp8handlers5hover5hovers_00Bb_
FN:45,_RNCNvNtNtNtCs45lXedhizVw_8docgraph3lsp8handlers5hover5hover0B9_
FN:52,_RNCNvNtNtNtCs45lXedhizVw_8docgraph3lsp8handlers5hover5hovers_0B9_
FN:4,_RNvNtNtNtCs45lXedhizVw_8docgraph3lsp8handlers5hover5hover
FN:76,_RNvNtNtNtNtCs45lXedhizVw_8docgraph3lsp8handlers5hover5testss_21test_hover_definition
FNDA:0,_RNCNCNvNtNtNtCs8RsHhL5CoQx_8docgraph3lsp8handlers5hover5hovers_00Bb_
FNDA:0,_RNCNvNtNtNtCs8RsHhL5CoQx_8docgraph3lsp8handlers5hover5hover0B9_
FNDA:0,_RNCNvNtNtNtCs8RsHhL5CoQx_8docgraph3lsp8handlers5hover5hovers_0B9_
FNDA:0,_RNvNtNtNtCs8RsHhL5CoQx_8docgraph3lsp8handlers5hover5hover
FNDA:0,_RNCNCNvNtNtNtCs45lXedhizVw_8docgraph3lsp8handlers5hover5hovers_00Bb_
FNDA:1,_RNCNvNtNtNtCs45lXedhizVw_8docgraph3lsp8handlers5hover5hover0B9_
FNDA:1,_RNCNvNtNtNtCs45lXedhizVw_8docgraph3lsp8handlers5hover5hovers_0B9_
FNDA:1,_RNvNtNtNtCs45lXedhizVw_8docgraph3lsp8handlers5hover5hover
FNDA:1,_RNvNtNtNtNtCs45lXedhizVw_8docgraph3lsp8handlers5hover5testss_21test_hover_definition
FNF:5
FNH:4
DA:4,1
DA:5,1
DA:6,1
DA:7,1
DA:8,1
DA:9,1
DA:10,1
DA:11,1
DA:12,1
DA:14,1
DA:15,1
DA:17,1
DA:18,1
DA:19,1
DA:20,0
DA:21,0
DA:22,0
DA:23,0
DA:25,0
DA:27,1
DA:28,1
DA:29,0
DA:30,0
DA:31,0
DA:32,0
DA:34,0
DA:35,1
DA:36,1
DA:37,1
DA:38,1
DA:39,1
DA:40,0
DA:42,0
DA:44,1
DA:45,1
DA:47,1
DA:48,1
DA:50,1
DA:51,1
DA:52,1
DA:53,1
DA:54,1
DA:56,1
DA:57,1
DA:58,1
DA:59,1
DA:61,1
DA:62,1
DA:63,1
DA:64,1
DA:65,0
DA:66,0
DA:67,0
DA:68,1
DA:76,1
DA:77,1
DA:78,1
DA:79,1
DA:80,1
DA:81,1
DA:82,1
DA:83,1
DA:84,1
DA:85,1
DA:86,1
DA:88,1
DA:89,1
DA:90,1
DA:91,1
DA:92,1
DA:93,1
DA:94,1
DA:95,1
DA:96,1
DA:97,1
DA:98,1
DA:100,1
DA:101,1
DA:102,1
DA:103,1
DA:104,1
DA:106,0
DA:109,0
DA:111,1
BRF:0
BRH:0
LF:87
LH:69
end_of_record
SF:/Users/sonesuke/Desktop/docgraph/src/lsp/handlers/references.rs
FN:4,_RNvNtNtNtCs8RsHhL5CoQx_8docgraph3lsp8handlers10references10references
FN:94,_RNvNtNtNtNtCs45lXedhizVw_8docgraph3lsp8handlers10references5testss_15test_references
FN:4,_RNvNtNtNtCs45lXedhizVw_8docgraph3lsp8handlers10references10references
FNDA:0,_RNvNtNtNtCs8RsHhL5CoQx_8docgraph3lsp8handlers10references10references
FNDA:1,_RNvNtNtNtNtCs45lXedhizVw_8docgraph3lsp8handlers10references5testss_15test_references
FNDA:1,_RNvNtNtNtCs45lXedhizVw_8docgraph3lsp8handlers10references10references
FNF:2
FNH:2
DA:4,1
DA:5,1
DA:6,1
DA:7,1
DA:8,1
DA:9,1
DA:10,1
DA:11,1
DA:12,1
DA:14,1
DA:15,1
DA:17,1
DA:18,1
DA:19,1
DA:20,1
DA:21,0
DA:22,0
DA:23,0
DA:24,0
DA:25,0
DA:26,0
DA:27,0
DA:29,0
DA:31,1
DA:32,0
DA:33,0
DA:34,0
DA:35,0
DA:36,0
DA:38,1
DA:40,1
DA:41,1
DA:42,2
DA:43,3
DA:44,1
DA:45,1
DA:46,1
DA:47,1
DA:48,1
DA:49,1
DA:50,1
DA:51,1
DA:52,1
DA:53,1
DA:54,1
DA:55,1
DA:56,1
DA:57,1
DA:58,1
DA:59,1
DA:60,1
DA:63,1
DA:64,0
DA:65,0
DA:66,0
DA:67,0
DA:68,0
DA:69,0
DA:70,0
DA:71,0
DA:72,0
DA:73,0
DA:74,0
DA:75,0
DA:76,0
DA:77,0
DA:78,0
DA:79,0
DA:80,0
DA:82,1
DA:83,0
DA:84,0
DA:85,0
DA:86,1
DA:94,1
DA:95,1
DA:96,1
DA:97,1
DA:98,1
DA:99,1
DA:100,1
DA:101,1
DA:102,1
DA:103,1
DA:104,1
DA:105,1
DA:106,1
DA:107,1
DA:108,1
DA:109,1
DA:110,1
DA:111,1
DA:112,1
DA:113,1
DA:114,1
DA:115,1
DA:116,1
DA:117,1
DA:119,1
DA:121,1
DA:122,1
DA:123,1
DA:124,1
DA:125,1
DA:126,1
DA:127,1
DA:128,1
DA:129,1
DA:130,1
DA:131,1
DA:132,1
DA:133,1
DA:134,1
DA:135,1
DA:137,1
DA:138,1
DA:139,1
DA:140,1
DA:142,0
DA:144,1
BRF:0
BRH:0
LF:120
LH:86
end_of_record
SF:/Users/sonesuke/Desktop/docgraph/src/lsp/handlers/rename.rs
FN:4,_RNvNtNtNtCs8RsHhL5CoQx_8docgraph3lsp8handlers6rename6rename
FN:108,_RNvNtNtNtNtCs45lXedhizVw_8docgraph3lsp8handlers6rename5testss_11test_rename
FN:4,_RNvNtNtNtCs45lXedhizVw_8docgraph3lsp8handlers6rename6rename
FNDA:0,_RNvNtNtNtCs8RsHhL5CoQx_8docgraph3lsp8handlers6rename6rename
FNDA:1,_RNvNtNtNtNtCs45lXedhizVw_8docgraph3lsp8handlers6rename5testss_11test_rename
FNDA:1,_RNvNtNtNtCs45lXedhizVw_8docgraph3lsp8handlers6rename6rename
FNF:2
FNH:2
DA:4,1
DA:5,1
DA:6,1
DA:7,1
DA:8,1
DA:9,1
DA:10,1
DA:11,1
DA:13,1
DA:14,1
DA:15,1
DA:16,1
DA:17,1
DA:18,1
DA:19,0
DA:22,1
DA:23,1
DA:24,1
DA:25,1
DA:26,1
DA:27,1
DA:28,1
DA:30,1
DA:31,1
DA:32,1
DA:33,1
DA:34,1
DA:35,1
DA:36,1
DA:37,1
DA:38,1
DA:39,1
DA:40,1
DA:41,1
DA:42,1
DA:43,1
DA:44,1
DA:45,1
DA:46,1
DA:47,1
DA:48,0
DA:49,0
DA:51,1
DA:52,1
DA:53,0
DA:54,0
DA:55,0
DA:56,0
DA:57,0
DA:58,0
DA:59,0
DA:60,0
DA:61,0
DA:62,0
DA:63,0
DA:64,0
DA:65,0
DA:66,0
DA:67,0
DA:68,0
DA:69,0
DA:72,1
DA:73,0
DA:74,0
DA:75,0
DA:76,0
DA:77,0
DA:78,0
DA:79,0
DA:80,0
DA:81,0
DA:82,0
DA:83,0
DA:84,0
DA:85,0
DA:86,0
DA:87,0
DA:88,0
DA:89,0
DA:91,1
DA:92,1
DA:93,1
DA:94,1
DA:95,0
DA:96,0
DA:97,0
DA:98,1
DA:108,1
DA:110,1
DA:111,1
DA:112,1
DA:114,1
DA:115,1
DA:116,1
DA:117,1
DA:118,1
DA:119,1
DA:120,1
DA:121,1
DA:123,1
DA:124,1
DA:125,1
DA:126,1
DA:127,1
DA:128,1
DA:129,1
DA:130,1
DA:131,1
DA:132,1
DA:133,1
DA:134,1
DA:136,1
DA:137,1
DA:138,1
DA:139,1
DA:140,1
DA:141,1
DA:143,1
DA:145,0
DA:147,1
BRF:0
BRH:0
LF:120
LH:79
end_of_record
SF:/Users/sonesuke/Desktop/docgraph/src/lsp/mod.rs
FN:8,_RNCNvNtCs8RsHhL5CoQx_8docgraph3lsp10run_server0B5_
FN:8,_RNvNtCs8RsHhL5CoQx_8docgraph3lsp10run_server
FN:8,_RNCNvNtCs45lXedhizVw_8docgraph3lsp10run_server0B5_
FN:8,_RNvNtCs45lXedhizVw_8docgraph3lsp10run_server
FNDA:0,_RNCNvNtCs8RsHhL5CoQx_8docgraph3lsp10run_server0B5_
FNDA:0,_RNvNtCs8RsHhL5CoQx_8docgraph3lsp10run_server
FNDA:0,_RNCNvNtCs45lXedhizVw_8docgraph3lsp10run_server0B5_
FNDA:0,_RNvNtCs45lXedhizVw_8docgraph3lsp10run_server
FNF:2
FNH:0
DA:8,0
DA:9,0
DA:10,0
DA:12,0
DA:13,0
DA:14,0
BRF:0
BRH:0
LF:7
LH:0
end_of_record
SF:/Users/sonesuke/Desktop/docgraph/src/main.rs
FN:5,_RNCNvCsdcl405J13X5_8docgraph4main0B3_
FN:5,_RNvCsdcl405J13X5_8docgraph4main
FN:5,_RNCNvCsdRghSHcmsAh_8docgraph4main0B3_
FN:5,_RNvCsdRghSHcmsAh_8docgraph4main
FNDA:35,_RNCNvCsdcl405J13X5_8docgraph4main0B3_
FNDA:35,_RNvCsdcl405J13X5_8docgraph4main
FNDA:0,_RNCNvCsdRghSHcmsAh_8docgraph4main0B3_
FNDA:0,_RNvCsdRghSHcmsAh_8docgraph4main
FNF:2
FNH:2
DA:5,35
DA:6,70
DA:7,35
BRF:0
BRH:0
LF:5
LH:5
end_of_record